
./build/NucleoInit.elf:     file format elf32-littlearm

SYMBOL TABLE:
08000000 l    d  .isr_vector	00000000 .isr_vector
080001c4 l    d  .text	00000000 .text
080022ac l    d  .rodata	00000000 .rodata
080022c0 l    d  .ARM.extab	00000000 .ARM.extab
080022f0 l    d  .ARM	00000000 .ARM
080023f8 l    d  .init_array	00000000 .init_array
08002400 l    d  .fini_array	00000000 .fini_array
20000000 l    d  .data	00000000 .data
2000043c l    d  .bss	00000000 .bss
20000464 l    d  ._user_heap_stack	00000000 ._user_heap_stack
00000000 l    d  .ARM.attributes	00000000 .ARM.attributes
00000000 l    d  .debug_info	00000000 .debug_info
00000000 l    d  .debug_abbrev	00000000 .debug_abbrev
00000000 l    d  .debug_loc	00000000 .debug_loc
00000000 l    d  .debug_aranges	00000000 .debug_aranges
00000000 l    d  .debug_ranges	00000000 .debug_ranges
00000000 l    d  .debug_line	00000000 .debug_line
00000000 l    d  .debug_str	00000000 .debug_str
00000000 l    d  .comment	00000000 .comment
00000000 l    d  .debug_frame	00000000 .debug_frame
00000000 l    d  .stab	00000000 .stab
00000000 l    d  .stabstr	00000000 .stabstr
00000000 l    df *ABS*	00000000 startup.c
00000000 l    df *ABS*	00000000 crtstuff.c
080001c4 l     F .text	00000000 __do_global_dtors_aux
2000043c l       .bss	00000001 completed.1
08002400 l     O .fini_array	00000000 __do_global_dtors_aux_fini_array_entry
080001e8 l     F .text	00000000 frame_dummy
20000440 l       .bss	00000018 object.0
080023fc l     O .init_array	00000000 __frame_dummy_init_array_entry
00000000 l    df *ABS*	00000000 stm32f4xx_it.c
00000000 l    df *ABS*	00000000 stm32f4xx_hal_rcc.c
00000000 l    df *ABS*	00000000 stm32f4xx_hal_rcc_ex.c
00000000 l    df *ABS*	00000000 stm32f4xx_hal_cortex.c
00000000 l    df *ABS*	00000000 stm32f4xx_hal.c
00000000 l    df *ABS*	00000000 main.cpp
00000000 l    df *ABS*	00000000 init.c
00000000 l    df *ABS*	00000000 memset.c
00000000 l    df *ABS*	00000000 __call_atexit.c
08000de8 l     F .text	00000014 register_fini
00000000 l    df *ABS*	00000000 atexit.c
00000000 l    df *ABS*	00000000 fini.c
00000000 l    df *ABS*	00000000 lock.c
00000000 l    df *ABS*	00000000 __atexit.c
00000000 l    df *ABS*	00000000 _aeabi_uldivmod.o
00000000 l    df *ABS*	00000000 libgcc2.c
00000000 l    df *ABS*	00000000 unwind-arm.c
080011c8 l     F .text	00000012 selfrel_offset31
080011dc l     F .text	0000005c search_EIT_table
08001238 l     F .text	00000028 __gnu_unwind_get_pr_addr
08001260 l     F .text	0000009c get_eit_entry
080012fc l     F .text	00000058 restore_non_core_regs
08001354 l     F .text	00000004 __gnu_unwind_24bit.constprop.0
08001358 l     F .text	0000000a _Unwind_decode_typeinfo_ptr.constprop.0
08001364 l     F .text	00000002 _Unwind_DebugHook
08001368 l     F .text	0000003a unwind_phase2
080013a4 l     F .text	000000ca unwind_phase2_forced
08001580 l     F .text	0000001a _Unwind_GetGR
080015cc l     F .text	00000018 _Unwind_SetGR
08001668 l     F .text	000002a8 __gnu_unwind_pr_common
00000000 l    df *ABS*	00000000 libunwind.o
00000000 l    df *ABS*	00000000 pr-support.c
08001d4c l     F .text	00000038 next_unwind_byte
08001d84 l     F .text	0000001a _Unwind_GetGR.constprop.0
08001da0 l     F .text	00000002 unwind_UCB_from_context
00000000 l    df *ABS*	00000000 _dvmd_tls.o
00000000 l    df *ABS*	00000000 abort.c
00000000 l    df *ABS*	00000000 lib_a-memcpy.o
00000000 l    df *ABS*	00000000 signal.c
00000000 l    df *ABS*	00000000 signalr.c
00000000 l    df *ABS*	00000000 getpid.c
00000000 l    df *ABS*	00000000 kill.c
00000000 l    df *ABS*	00000000 _exit.c
00000000 l    df *ABS*	00000000 crti.o
00000000 l    df *ABS*	00000000 crtn.o
00000000 l    df *ABS*	00000000 system_stm32f4xx.c
00000000 l    df *ABS*	00000000 impure.c
20000010 l     O .data	00000428 impure_data
00000000 l    df *ABS*	00000000 reent.c
00000000 l    df *ABS*	00000000 
08002404 l       .fini_array	00000000 __fini_array_end
08002400 l       .fini_array	00000000 __fini_array_start
08002400 l       .init_array	00000000 __init_array_end
080023f8 l       .init_array	00000000 __preinit_array_end
080023f8 l       .init_array	00000000 __init_array_start
080023f8 l       .init_array	00000000 __preinit_array_start
08000adc  w    F .text	00000006 RTC_Alarm_IRQHandler
08001d04 g     F .text	00000022 .hidden ___Unwind_ForcedUnwind
08001474 g     F .text	00000066 .hidden __gnu_Unwind_RaiseException
08000a16  w    F .text	00000006 EXTI2_IRQHandler
08000afa  w    F .text	00000006 TIM8_CC_IRQHandler
08002270 g     F .text	00000010 _getpid
08000210 g     F .text	00000002 DebugMon_Handler
08000bae  w    F .text	00000006 FMPI2C1_EV_IRQHandler
08000b9c  w    F .text	00000006 SPI4_IRQHandler
08000000 g     O .isr_vector	000001c4 VectorTable
08002240 g     F .text	0000002c _kill_r
2000045c g     O .bss	00000001 __lock___atexit_recursive_mutex
08000a88  w    F .text	00000006 TIM1_CC_IRQHandler
08000860 g     F .text	00000070 HAL_NVIC_SetPriority
08000b6c  w    F .text	00000006 DMA2_Stream5_IRQHandler
08000206 g     F .text	00000002 HardFault_Handler
08000a46  w    F .text	00000006 DMA1_Stream5_IRQHandler
00000400 g       *ABS*	00000000 _Min_Stack_Size
08000b18  w    F .text	00000006 TIM6_IRQHandler
08000214 g     F .text	00000008 SysTick_Handler
080009ec  w    F .text	00000006 PVD_IRQHandler
08000b06  w    F .text	00000006 SDIO_IRQHandler
080009f2  w    F .text	00000006 TAMP_STAMP_IRQHandler
08002404 g       *ABS*	00000000 _sidata
08001bc0 g     F .text	00000000 .hidden __gnu_Unwind_Save_VFP
08001ce0 g     F .text	00000022 .hidden _Unwind_Resume_or_Rethrow
08000212 g     F .text	00000002 PendSV_Handler
08000204 g     F .text	00000002 NMI_Handler
080023f8 g       .ARM	00000000 __exidx_end
08000b5a  w    F .text	00000006 CAN2_RX1_IRQHandler
08000a1c  w    F .text	00000006 EXTI3_IRQHandler
0800021c  w    F .text	000000d4 HAL_RCC_GetSysClockFreq
08001910 g     F .text	00000004 .hidden __aeabi_unwind_cpp_pr0
20000438 g     O .data	00000004 __atexit_recursive_mutex
08000af4  w    F .text	00000006 TIM8_TRG_COM_TIM14_IRQHandler
0800207c g     F .text	0000000a .hidden _Unwind_GetRegionStart
08000b48  w    F .text	00000006 DFSDM1_FLT1_IRQHandler
08001ce0 g     F .text	00000022 .hidden ___Unwind_Resume_or_Rethrow
08000a7c  w    F .text	00000006 TIM1_UP_TIM10_IRQHandler
20000460 g     O .bss	00000004 errno
2000043c g       .bss	00000000 _sbss
08001d28 g     F .text	00000022 .hidden _Unwind_Backtrace
08000aee  w    F .text	00000006 TIM8_UP_TIM13_IRQHandler
08000b8a  w    F .text	00000006 I2C3_ER_IRQHandler
08001ba0 g     F .text	00000018 .hidden __restore_core_regs
08001be0 g     F .text	00000000 .hidden __gnu_Unwind_Save_VFP_D_16_to_31
08001470 g     F .text	00000004 .hidden _Unwind_GetCFA
080020b0 g     F .text	00000134 memcpy
0800159c g     F .text	0000002e .hidden _Unwind_VRS_Set
08000a0a  w    F .text	00000006 EXTI0_IRQHandler
08000aac  w    F .text	00000006 I2C2_EV_IRQHandler
08000ec8 g     F .text	00000000 .hidden __aeabi_uldivmod
08000a34  w    F .text	00000006 DMA1_Stream2_IRQHandler
08000a6a  w    F .text	00000006 CAN1_RX0_IRQHandler
08000b96  w    F .text	00000006 FPU_IRQHandler
08000968  w    F .text	00000028 HAL_Delay
20000008 g     O .data	00000004 SystemCoreClock
20000000 g     O .data	00000001 uwTickFreq
0800020c g     F .text	00000002 UsageFault_Handler
08000b60  w    F .text	00000006 CAN2_SCE_IRQHandler
08000b30  w    F .text	00000006 DMA2_Stream2_IRQHandler
0800226c g     F .text	00000004 _getpid_r
080015e4 g     F .text	00000084 .hidden __gnu_Unwind_Backtrace
20000000 g       .data	00000000 _sdata
08000ab8  w    F .text	00000006 SPI1_IRQHandler
08000ef8 g     F .text	000002d0 .hidden __udivmoddi4
08001bd0 g     F .text	00000000 .hidden __gnu_Unwind_Save_VFP_D
08000a76  w    F .text	00000006 TIM1_BRK_TIM9_IRQHandler
20000458 g     O .bss	00000004 uwTick
0800191c g     F .text	00000284 .hidden _Unwind_VRS_Pop
08000b54  w    F .text	00000006 CAN2_RX0_IRQHandler
08001918  w    F .text	00000004 .hidden __aeabi_unwind_cpp_pr2
08001d28 g     F .text	00000022 .hidden ___Unwind_Backtrace
080008d0 g     F .text	00000028 HAL_SYSTICK_Config
080022f0 g       .ARM	00000000 __exidx_start
08000b36  w    F .text	00000006 DMA2_Stream3_IRQHandler
080022bc g     O .rodata	00000004 _global_impure_ptr
08000cfc g     F .text	00000048 __libc_init_array
08001c98 g     F .text	00000022 .hidden ___Unwind_RaiseException
080020a0 g     F .text	0000000e abort
08001cbc g     F .text	00000022 .hidden ___Unwind_Resume
08000b7e  w    F .text	00000006 USART6_IRQHandler
08002294 g     F .text	00000000 _init
08001be8 g     F .text	00000000 .hidden __gnu_Unwind_Restore_WMMXD
08000ad0  w    F .text	00000006 USART3_IRQHandler
08000e08 g     F .text	0000002c __libc_fini_array
20000464 g       .bss	00000000 _ebss
08000990 g     F .text	00000054 Reset_Handler
08000a5e  w    F .text	00000006 CAN1_RX1_IRQHandler
08000b24  w    F .text	00000006 DMA2_Stream0_IRQHandler
20000004 g     O .data	00000004 uwTickPrio
08000a9a  w    F .text	00000006 TIM4_IRQHandler
08001bb8 g     F .text	00000000 .hidden __gnu_Unwind_Restore_VFP
08000ba8  w    F .text	00000006 QUADSPI_IRQHandler
20000468 g       ._user_heap_stack	00000000 end
08000aa0  w    F .text	00000006 I2C1_EV_IRQHandler
08000e38 g     F .text	00000002 __retarget_lock_release_recursive
08000a4c  w    F .text	00000006 DMA1_Stream6_IRQHandler
08001cbc g     F .text	00000022 .hidden _Unwind_Resume
08001544 g     F .text	0000000c .hidden _Unwind_DeleteException
08001540 g     F .text	00000002 .hidden _Unwind_Complete
08000a2e  w    F .text	00000006 DMA1_Stream1_IRQHandler
20000464 g       .bss	00000000 __bss_end__
08000a94  w    F .text	00000006 TIM3_IRQHandler
08000a04  w    F .text	00000006 RCC_IRQHandler
08000ae8  w    F .text	00000006 TIM8_BRK_TIM12_IRQHandler
00000200 g       *ABS*	00000000 _Min_Heap_Size
080009e4 g     F .text	00000002 Default_Handler
080022ac g     O .rodata	00000010 AHBPrescTable
08001da4 g     F .text	000002ac .hidden __gnu_unwind_execute
08000ad6  w    F .text	00000006 EXTI15_10_IRQHandler
08000e3c g     F .text	0000008c __register_exitproc
08000a52  w    F .text	00000006 ADC_IRQHandler
08001bc8 g     F .text	00000000 .hidden __gnu_Unwind_Restore_VFP_D
080002f0 g     F .text	00000160 HAL_RCC_ClockConfig
08000b00  w    F .text	00000006 DMA1_Stream7_IRQHandler
08000ba2  w    F .text	00000006 SPI5_IRQHandler
080014ec g     F .text	00000044 .hidden __gnu_Unwind_Resume
08000b1e  w    F .text	00000006 TIM7_IRQHandler
08000b4e  w    F .text	00000006 CAN2_TX_IRQHandler
08000b0c  w    F .text	00000006 TIM5_IRQHandler
08001bd8 g     F .text	00000000 .hidden __gnu_Unwind_Restore_VFP_D_16_to_31
08000b78  w    F .text	00000006 DMA2_Stream7_IRQHandler
08000b84  w    F .text	00000006 I2C3_EV_IRQHandler
08001c98 g     F .text	00000022 .hidden _Unwind_RaiseException
0800209c  w    F .text	00000002 .hidden __aeabi_ldiv0
08000a70  w    F .text	00000006 EXTI9_5_IRQHandler
080009f8  w    F .text	00000006 RTC_WKUP_IRQHandler
0800095c  w    F .text	0000000c HAL_GetTick
08000abe  w    F .text	00000006 SPI2_IRQHandler
08000e34 g     F .text	00000002 __retarget_lock_acquire_recursive
2000043c g       .bss	00000000 __bss_start
08000d44 g     F .text	000000a4 memset
08000208 g     F .text	00000002 MemManage_Handler
08000c68 g     F .text	00000094 main
08000a28  w    F .text	00000006 DMA1_Stream0_IRQHandler
08000a58  w    F .text	00000006 CAN1_TX_IRQHandler
0800020e g     F .text	00000002 SVC_Handler
08000bb4  w    F .text	00000006 FMPI2C1_ER_IRQHandler
08000a22  w    F .text	00000006 EXTI4_IRQHandler
080014dc g     F .text	0000000e .hidden __gnu_Unwind_ForcedUnwind
08001530 g     F .text	0000000e .hidden __gnu_Unwind_Resume_or_Rethrow
08000b90  w    F .text	00000006 RNG_IRQHandler
080022a0 g     F .text	00000000 _fini
08001ba0 g     F .text	00000018 .hidden restore_core_regs
08001c84 g     F .text	00000000 .hidden __gnu_Unwind_Save_WMMXC
08000dfc g     F .text	0000000c atexit
080008f8  w    F .text	0000004c HAL_InitTick
2000000c g     O .data	00000004 _impure_ptr
08000944  w    F .text	00000018 HAL_IncTick
080009e6  w    F .text	00000006 WWDG_IRQHandler
08000a8e  w    F .text	00000006 TIM2_IRQHandler
08002088 g     F .text	00000012 .hidden _Unwind_GetLanguageSpecificData
08000ae2  w    F .text	00000006 OTG_FS_WKUP_IRQHandler
08000a82  w    F .text	00000006 TIM1_TRG_COM_TIM11_IRQHandler
08001550 g     F .text	0000002e .hidden _Unwind_VRS_Get
20040000 g       *ABS*	00000000 _estack
08001c70 g     F .text	00000000 .hidden __gnu_Unwind_Restore_WMMXC
08000a10  w    F .text	00000006 EXTI1_IRQHandler
08002050 g     F .text	0000002a .hidden __gnu_unwind_frame
08001d04 g     F .text	00000022 .hidden _Unwind_ForcedUnwind
2000043c g       .data	00000000 _edata
08000aca  w    F .text	00000006 USART2_IRQHandler
08000450 g     F .text	00000410 HAL_RCC_OscConfig
08000b42  w    F .text	00000006 DFSDM1_FLT0_IRQHandler
08001c2c g     F .text	00000000 .hidden __gnu_Unwind_Save_WMMXD
08000bc0 g     F .text	000000a8 _Z18SystemClock_Configv
08002280 g     F .text	00000010 _kill
08000ab2  w    F .text	00000006 I2C2_ER_IRQHandler
08000b2a  w    F .text	00000006 DMA2_Stream1_IRQHandler
0800209c  w    F .text	00000002 .hidden __aeabi_idiv0
08000a64  w    F .text	00000006 CAN1_SCE_IRQHandler
080009fe  w    F .text	00000006 FLASH_IRQHandler
08002290 g     F .text	00000002 _exit
08000b3c  w    F .text	00000006 DMA2_Stream4_IRQHandler
0800020a g     F .text	00000002 BusFault_Handler
08000ac4  w    F .text	00000006 USART1_IRQHandler
08000b66  w    F .text	00000006 OTG_FS_IRQHandler
08000b12  w    F .text	00000006 SPI3_IRQHandler
08001914  w    F .text	00000004 .hidden __aeabi_unwind_cpp_pr1
08000a40  w    F .text	00000006 DMA1_Stream4_IRQHandler
08000aa6  w    F .text	00000006 I2C1_ER_IRQHandler
08000b72  w    F .text	00000006 DMA2_Stream6_IRQHandler
08000a3a  w    F .text	00000006 DMA1_Stream3_IRQHandler
080021e4 g     F .text	0000005c raise
08000bba g     F .text	00000004 Error_Handler



Disassembly of section .isr_vector:

08000000 <VectorTable>:
__weak void FMPI2C1_EV_IRQHandler(void)          { Default_Handler(); }   /* FMPI2C1 Event                               */
__weak void FMPI2C1_ER_IRQHandler(void)          { Default_Handler(); }   /* FMPI2C1 Error                               */

// Interrupt vector table
__attribute__((section(".isr_vector")))
void (* VectorTable[])(void) =
 8000000:	20040000 	andcs	r0, r4, r0
 8000004:	08000991 	stmdaeq	r0, {r0, r4, r7, r8, fp}
 8000008:	08000205 	stmdaeq	r0, {r0, r2, r9}
 800000c:	08000207 	stmdaeq	r0, {r0, r1, r2, r9}
 8000010:	08000209 	stmdaeq	r0, {r0, r3, r9}
 8000014:	0800020b 	stmdaeq	r0, {r0, r1, r3, r9}
 8000018:	0800020d 	stmdaeq	r0, {r0, r2, r3, r9}
	...
 800002c:	0800020f 	stmdaeq	r0, {r0, r1, r2, r3, r9}
 8000030:	08000211 	stmdaeq	r0, {r0, r4, r9}
 8000034:	00000000 	andeq	r0, r0, r0
 8000038:	08000213 	stmdaeq	r0, {r0, r1, r4, r9}
 800003c:	08000215 	stmdaeq	r0, {r0, r2, r4, r9}
 8000040:	080009e7 	stmdaeq	r0, {r0, r1, r2, r5, r6, r7, r8, fp}
 8000044:	080009ed 	stmdaeq	r0, {r0, r2, r3, r5, r6, r7, r8, fp}
 8000048:	080009f3 	stmdaeq	r0, {r0, r1, r4, r5, r6, r7, r8, fp}
 800004c:	080009f9 	stmdaeq	r0, {r0, r3, r4, r5, r6, r7, r8, fp}
 8000050:	080009ff 	stmdaeq	r0, {r0, r1, r2, r3, r4, r5, r6, r7, r8, fp}
 8000054:	08000a05 	stmdaeq	r0, {r0, r2, r9, fp}
 8000058:	08000a0b 	stmdaeq	r0, {r0, r1, r3, r9, fp}
 800005c:	08000a11 	stmdaeq	r0, {r0, r4, r9, fp}
 8000060:	08000a17 	stmdaeq	r0, {r0, r1, r2, r4, r9, fp}
 8000064:	08000a1d 	stmdaeq	r0, {r0, r2, r3, r4, r9, fp}
 8000068:	08000a23 	stmdaeq	r0, {r0, r1, r5, r9, fp}
 800006c:	08000a29 	stmdaeq	r0, {r0, r3, r5, r9, fp}
 8000070:	08000a2f 	stmdaeq	r0, {r0, r1, r2, r3, r5, r9, fp}
 8000074:	08000a35 	stmdaeq	r0, {r0, r2, r4, r5, r9, fp}
 8000078:	08000a3b 	stmdaeq	r0, {r0, r1, r3, r4, r5, r9, fp}
 800007c:	08000a41 	stmdaeq	r0, {r0, r6, r9, fp}
 8000080:	08000a47 	stmdaeq	r0, {r0, r1, r2, r6, r9, fp}
 8000084:	08000a4d 	stmdaeq	r0, {r0, r2, r3, r6, r9, fp}
 8000088:	08000a53 	stmdaeq	r0, {r0, r1, r4, r6, r9, fp}
 800008c:	08000a59 	stmdaeq	r0, {r0, r3, r4, r6, r9, fp}
 8000090:	08000a6b 	stmdaeq	r0, {r0, r1, r3, r5, r6, r9, fp}
 8000094:	08000a5f 	stmdaeq	r0, {r0, r1, r2, r3, r4, r6, r9, fp}
 8000098:	08000a65 	stmdaeq	r0, {r0, r2, r5, r6, r9, fp}
 800009c:	08000a71 	stmdaeq	r0, {r0, r4, r5, r6, r9, fp}
 80000a0:	08000a77 	stmdaeq	r0, {r0, r1, r2, r4, r5, r6, r9, fp}
 80000a4:	08000a7d 	stmdaeq	r0, {r0, r2, r3, r4, r5, r6, r9, fp}
 80000a8:	08000a83 	stmdaeq	r0, {r0, r1, r7, r9, fp}
 80000ac:	08000a89 	stmdaeq	r0, {r0, r3, r7, r9, fp}
 80000b0:	08000a8f 	stmdaeq	r0, {r0, r1, r2, r3, r7, r9, fp}
 80000b4:	08000a95 	stmdaeq	r0, {r0, r2, r4, r7, r9, fp}
 80000b8:	08000a9b 	stmdaeq	r0, {r0, r1, r3, r4, r7, r9, fp}
 80000bc:	08000aa1 	stmdaeq	r0, {r0, r5, r7, r9, fp}
 80000c0:	08000aa7 	stmdaeq	r0, {r0, r1, r2, r5, r7, r9, fp}
 80000c4:	08000aad 	stmdaeq	r0, {r0, r2, r3, r5, r7, r9, fp}
 80000c8:	08000ab3 	stmdaeq	r0, {r0, r1, r4, r5, r7, r9, fp}
 80000cc:	08000ab9 	stmdaeq	r0, {r0, r3, r4, r5, r7, r9, fp}
 80000d0:	08000abf 	stmdaeq	r0, {r0, r1, r2, r3, r4, r5, r7, r9, fp}
 80000d4:	08000ac5 	stmdaeq	r0, {r0, r2, r6, r7, r9, fp}
 80000d8:	08000acb 	stmdaeq	r0, {r0, r1, r3, r6, r7, r9, fp}
 80000dc:	08000ad1 	stmdaeq	r0, {r0, r4, r6, r7, r9, fp}
 80000e0:	08000ad7 	stmdaeq	r0, {r0, r1, r2, r4, r6, r7, r9, fp}
 80000e4:	08000add 	stmdaeq	r0, {r0, r2, r3, r4, r6, r7, r9, fp}
 80000e8:	08000ae3 	stmdaeq	r0, {r0, r1, r5, r6, r7, r9, fp}
 80000ec:	08000ae9 	stmdaeq	r0, {r0, r3, r5, r6, r7, r9, fp}
 80000f0:	08000aef 	stmdaeq	r0, {r0, r1, r2, r3, r5, r6, r7, r9, fp}
 80000f4:	08000af5 	stmdaeq	r0, {r0, r2, r4, r5, r6, r7, r9, fp}
 80000f8:	08000afb 	stmdaeq	r0, {r0, r1, r3, r4, r5, r6, r7, r9, fp}
 80000fc:	08000b01 	stmdaeq	r0, {r0, r8, r9, fp}
 8000100:	00000000 	andeq	r0, r0, r0
 8000104:	08000b07 	stmdaeq	r0, {r0, r1, r2, r8, r9, fp}
 8000108:	08000b0d 	stmdaeq	r0, {r0, r2, r3, r8, r9, fp}
 800010c:	08000b13 	stmdaeq	r0, {r0, r1, r4, r8, r9, fp}
	...
 8000118:	08000b19 	stmdaeq	r0, {r0, r3, r4, r8, r9, fp}
 800011c:	08000b1f 	stmdaeq	r0, {r0, r1, r2, r3, r4, r8, r9, fp}
 8000120:	08000b25 	stmdaeq	r0, {r0, r2, r5, r8, r9, fp}
 8000124:	08000b2b 	stmdaeq	r0, {r0, r1, r3, r5, r8, r9, fp}
 8000128:	08000b31 	stmdaeq	r0, {r0, r4, r5, r8, r9, fp}
 800012c:	08000b37 	stmdaeq	r0, {r0, r1, r2, r4, r5, r8, r9, fp}
 8000130:	08000b3d 	stmdaeq	r0, {r0, r2, r3, r4, r5, r8, r9, fp}
 8000134:	08000b43 	stmdaeq	r0, {r0, r1, r6, r8, r9, fp}
 8000138:	08000b49 	stmdaeq	r0, {r0, r3, r6, r8, r9, fp}
 800013c:	08000b4f 	stmdaeq	r0, {r0, r1, r2, r3, r6, r8, r9, fp}
 8000140:	08000b55 	stmdaeq	r0, {r0, r2, r4, r6, r8, r9, fp}
 8000144:	08000b5b 	stmdaeq	r0, {r0, r1, r3, r4, r6, r8, r9, fp}
 8000148:	08000b61 	stmdaeq	r0, {r0, r5, r6, r8, r9, fp}
 800014c:	08000b67 	stmdaeq	r0, {r0, r1, r2, r5, r6, r8, r9, fp}
 8000150:	08000b6d 	stmdaeq	r0, {r0, r2, r3, r5, r6, r8, r9, fp}
 8000154:	08000b73 	stmdaeq	r0, {r0, r1, r4, r5, r6, r8, r9, fp}
 8000158:	08000b79 	stmdaeq	r0, {r0, r3, r4, r5, r6, r8, r9, fp}
 800015c:	08000b7f 	stmdaeq	r0, {r0, r1, r2, r3, r4, r5, r6, r8, r9, fp}
 8000160:	08000b85 	stmdaeq	r0, {r0, r2, r7, r8, r9, fp}
 8000164:	08000b8b 	stmdaeq	r0, {r0, r1, r3, r7, r8, r9, fp}
	...
 8000180:	08000b91 	stmdaeq	r0, {r0, r4, r7, r8, r9, fp}
 8000184:	08000b97 	stmdaeq	r0, {r0, r1, r2, r4, r7, r8, r9, fp}
	...
 8000190:	08000b9d 	stmdaeq	r0, {r0, r2, r3, r4, r7, r8, r9, fp}
 8000194:	08000ba3 	stmdaeq	r0, {r0, r1, r5, r7, r8, r9, fp}
	...
 80001b0:	08000ba9 	stmdaeq	r0, {r0, r3, r5, r7, r8, r9, fp}
	...
 80001bc:	08000baf 	stmdaeq	r0, {r0, r1, r2, r3, r5, r7, r8, r9, fp}
 80001c0:	08000bb5 	stmdaeq	r0, {r0, r2, r4, r5, r7, r8, r9, fp}

Disassembly of section .text:

080001c4 <__do_global_dtors_aux>:
 80001c4:	b510      	push	{r4, lr}
 80001c6:	4c05      	ldr	r4, [pc, #20]	; (80001dc <__do_global_dtors_aux+0x18>)
 80001c8:	7823      	ldrb	r3, [r4, #0]
 80001ca:	b933      	cbnz	r3, 80001da <__do_global_dtors_aux+0x16>
 80001cc:	4b04      	ldr	r3, [pc, #16]	; (80001e0 <__do_global_dtors_aux+0x1c>)
 80001ce:	b113      	cbz	r3, 80001d6 <__do_global_dtors_aux+0x12>
 80001d0:	4804      	ldr	r0, [pc, #16]	; (80001e4 <__do_global_dtors_aux+0x20>)
 80001d2:	f3af 8000 	nop.w
 80001d6:	2301      	movs	r3, #1
 80001d8:	7023      	strb	r3, [r4, #0]
 80001da:	bd10      	pop	{r4, pc}
 80001dc:	2000043c 	andcs	r0, r0, ip, lsr r4
 80001e0:	00000000 	andeq	r0, r0, r0
 80001e4:	080022c0 	stmdaeq	r0, {r6, r7, r9, sp}

080001e8 <frame_dummy>:
 80001e8:	b508      	push	{r3, lr}
 80001ea:	4b03      	ldr	r3, [pc, #12]	; (80001f8 <frame_dummy+0x10>)
 80001ec:	b11b      	cbz	r3, 80001f6 <frame_dummy+0xe>
 80001ee:	4903      	ldr	r1, [pc, #12]	; (80001fc <frame_dummy+0x14>)
 80001f0:	4803      	ldr	r0, [pc, #12]	; (8000200 <frame_dummy+0x18>)
 80001f2:	f3af 8000 	nop.w
 80001f6:	bd08      	pop	{r3, pc}
 80001f8:	00000000 	andeq	r0, r0, r0
 80001fc:	20000440 	andcs	r0, r0, r0, asr #8
 8000200:	080022c0 	stmdaeq	r0, {r6, r7, r9, sp}

08000204 <NMI_Handler>:
{
  /* USER CODE BEGIN NonMaskableInt_IRQn 0 */

  /* USER CODE END NonMaskableInt_IRQn 0 */
  /* USER CODE BEGIN NonMaskableInt_IRQn 1 */
  while (1)
 8000204:	e7fe      	b.n	8000204 <NMI_Handler>

08000206 <HardFault_Handler>:
void HardFault_Handler(void)
{
  /* USER CODE BEGIN HardFault_IRQn 0 */

  /* USER CODE END HardFault_IRQn 0 */
  while (1)
 8000206:	e7fe      	b.n	8000206 <HardFault_Handler>

08000208 <MemManage_Handler>:
void MemManage_Handler(void)
{
  /* USER CODE BEGIN MemoryManagement_IRQn 0 */

  /* USER CODE END MemoryManagement_IRQn 0 */
  while (1)
 8000208:	e7fe      	b.n	8000208 <MemManage_Handler>

0800020a <BusFault_Handler>:
void BusFault_Handler(void)
{
  /* USER CODE BEGIN BusFault_IRQn 0 */

  /* USER CODE END BusFault_IRQn 0 */
  while (1)
 800020a:	e7fe      	b.n	800020a <BusFault_Handler>

0800020c <UsageFault_Handler>:
void UsageFault_Handler(void)
{
  /* USER CODE BEGIN UsageFault_IRQn 0 */

  /* USER CODE END UsageFault_IRQn 0 */
  while (1)
 800020c:	e7fe      	b.n	800020c <UsageFault_Handler>

0800020e <SVC_Handler>:

  /* USER CODE END SVCall_IRQn 0 */
  /* USER CODE BEGIN SVCall_IRQn 1 */

  /* USER CODE END SVCall_IRQn 1 */
}
 800020e:	4770      	bx	lr

08000210 <DebugMon_Handler>:

  /* USER CODE END DebugMonitor_IRQn 0 */
  /* USER CODE BEGIN DebugMonitor_IRQn 1 */

  /* USER CODE END DebugMonitor_IRQn 1 */
}
 8000210:	4770      	bx	lr

08000212 <PendSV_Handler>:

  /* USER CODE END PendSV_IRQn 0 */
  /* USER CODE BEGIN PendSV_IRQn 1 */

  /* USER CODE END PendSV_IRQn 1 */
}
 8000212:	4770      	bx	lr

08000214 <SysTick_Handler>:

/**
  * @brief This function handles System tick timer.
  */
void SysTick_Handler(void)
{
 8000214:	b508      	push	{r3, lr}
  /* USER CODE BEGIN SysTick_IRQn 0 */

  /* USER CODE END SysTick_IRQn 0 */
  HAL_IncTick();
 8000216:	f000 fb95 	bl	8000944 <HAL_IncTick>
  /* USER CODE BEGIN SysTick_IRQn 1 */

  /* USER CODE END SysTick_IRQn 1 */
}
 800021a:	bd08      	pop	{r3, pc}

0800021c <HAL_RCC_GetSysClockFreq>:
  *
  *
  * @retval SYSCLK frequency
  */
__weak uint32_t HAL_RCC_GetSysClockFreq(void)
{
 800021c:	b508      	push	{r3, lr}
  uint32_t pllm = 0U, pllvco = 0U, pllp = 0U;
  uint32_t sysclockfreq = 0U;

  /* Get SYSCLK source -------------------------------------------------------*/
  switch (RCC->CFGR & RCC_CFGR_SWS)
 800021e:	4b31      	ldr	r3, [pc, #196]	; (80002e4 <HAL_RCC_GetSysClockFreq+0xc8>)
 8000220:	689b      	ldr	r3, [r3, #8]
 8000222:	f003 030c 	and.w	r3, r3, #12
 8000226:	2b04      	cmp	r3, #4
 8000228:	d057      	beq.n	80002da <HAL_RCC_GetSysClockFreq+0xbe>
 800022a:	2b08      	cmp	r3, #8
 800022c:	d157      	bne.n	80002de <HAL_RCC_GetSysClockFreq+0xc2>
    }
    case RCC_CFGR_SWS_PLL:  /* PLL used as system clock  source */
    {
      /* PLL_VCO = (HSE_VALUE or HSI_VALUE / PLLM) * PLLN
      SYSCLK = PLL_VCO / PLLP */
      pllm = RCC->PLLCFGR & RCC_PLLCFGR_PLLM;
 800022e:	4b2d      	ldr	r3, [pc, #180]	; (80002e4 <HAL_RCC_GetSysClockFreq+0xc8>)
 8000230:	685a      	ldr	r2, [r3, #4]
 8000232:	f002 023f 	and.w	r2, r2, #63	; 0x3f
      if(__HAL_RCC_GET_PLL_OSCSOURCE() != RCC_PLLSOURCE_HSI)
 8000236:	685b      	ldr	r3, [r3, #4]
 8000238:	f413 0f80 	tst.w	r3, #4194304	; 0x400000
 800023c:	d02a      	beq.n	8000294 <HAL_RCC_GetSysClockFreq+0x78>
      {
        /* HSE used as PLL clock source */
        pllvco = (uint32_t) ((((uint64_t) HSE_VALUE * ((uint64_t) ((RCC->PLLCFGR & RCC_PLLCFGR_PLLN) >> RCC_PLLCFGR_PLLN_Pos)))) / (uint64_t)pllm);
 800023e:	4b29      	ldr	r3, [pc, #164]	; (80002e4 <HAL_RCC_GetSysClockFreq+0xc8>)
 8000240:	6859      	ldr	r1, [r3, #4]
 8000242:	f3c1 1c88 	ubfx	ip, r1, #6, #9
 8000246:	ea4f 114c 	mov.w	r1, ip, lsl #5
 800024a:	ebb1 000c 	subs.w	r0, r1, ip
 800024e:	eb6e 0e0e 	sbc.w	lr, lr, lr
 8000252:	ea4f 138e 	mov.w	r3, lr, lsl #6
 8000256:	ea43 6390 	orr.w	r3, r3, r0, lsr #26
 800025a:	0181      	lsls	r1, r0, #6
 800025c:	1a09      	subs	r1, r1, r0
 800025e:	eb63 030e 	sbc.w	r3, r3, lr
 8000262:	00db      	lsls	r3, r3, #3
 8000264:	ea43 7351 	orr.w	r3, r3, r1, lsr #29
 8000268:	00c9      	lsls	r1, r1, #3
 800026a:	eb11 0c0c 	adds.w	ip, r1, ip
 800026e:	f143 0300 	adc.w	r3, r3, #0
 8000272:	0259      	lsls	r1, r3, #9
 8000274:	2300      	movs	r3, #0
 8000276:	ea4f 204c 	mov.w	r0, ip, lsl #9
 800027a:	ea41 51dc 	orr.w	r1, r1, ip, lsr #23
 800027e:	f000 fe23 	bl	8000ec8 <__aeabi_uldivmod>
      else
      {
        /* HSI used as PLL clock source */
        pllvco = (uint32_t) ((((uint64_t) HSI_VALUE * ((uint64_t) ((RCC->PLLCFGR & RCC_PLLCFGR_PLLN) >> RCC_PLLCFGR_PLLN_Pos)))) / (uint64_t)pllm);
      }
      pllp = ((((RCC->PLLCFGR & RCC_PLLCFGR_PLLP) >> RCC_PLLCFGR_PLLP_Pos) + 1U) *2U);
 8000282:	4b18      	ldr	r3, [pc, #96]	; (80002e4 <HAL_RCC_GetSysClockFreq+0xc8>)
 8000284:	685b      	ldr	r3, [r3, #4]
 8000286:	f3c3 4301 	ubfx	r3, r3, #16, #2
 800028a:	3301      	adds	r3, #1
 800028c:	005b      	lsls	r3, r3, #1

      sysclockfreq = pllvco/pllp;
 800028e:	fbb0 f0f3 	udiv	r0, r0, r3
      break;
 8000292:	e025      	b.n	80002e0 <HAL_RCC_GetSysClockFreq+0xc4>
        pllvco = (uint32_t) ((((uint64_t) HSI_VALUE * ((uint64_t) ((RCC->PLLCFGR & RCC_PLLCFGR_PLLN) >> RCC_PLLCFGR_PLLN_Pos)))) / (uint64_t)pllm);
 8000294:	4b13      	ldr	r3, [pc, #76]	; (80002e4 <HAL_RCC_GetSysClockFreq+0xc8>)
 8000296:	6859      	ldr	r1, [r3, #4]
 8000298:	f3c1 1c88 	ubfx	ip, r1, #6, #9
 800029c:	ea4f 114c 	mov.w	r1, ip, lsl #5
 80002a0:	ebb1 000c 	subs.w	r0, r1, ip
 80002a4:	eb6e 0e0e 	sbc.w	lr, lr, lr
 80002a8:	ea4f 138e 	mov.w	r3, lr, lsl #6
 80002ac:	ea43 6390 	orr.w	r3, r3, r0, lsr #26
 80002b0:	0181      	lsls	r1, r0, #6
 80002b2:	1a09      	subs	r1, r1, r0
 80002b4:	eb63 030e 	sbc.w	r3, r3, lr
 80002b8:	00db      	lsls	r3, r3, #3
 80002ba:	ea43 7351 	orr.w	r3, r3, r1, lsr #29
 80002be:	00c9      	lsls	r1, r1, #3
 80002c0:	eb11 0c0c 	adds.w	ip, r1, ip
 80002c4:	f143 0300 	adc.w	r3, r3, #0
 80002c8:	0299      	lsls	r1, r3, #10
 80002ca:	2300      	movs	r3, #0
 80002cc:	ea4f 208c 	mov.w	r0, ip, lsl #10
 80002d0:	ea41 519c 	orr.w	r1, r1, ip, lsr #22
 80002d4:	f000 fdf8 	bl	8000ec8 <__aeabi_uldivmod>
 80002d8:	e7d3      	b.n	8000282 <HAL_RCC_GetSysClockFreq+0x66>
      sysclockfreq = HSE_VALUE;
 80002da:	4803      	ldr	r0, [pc, #12]	; (80002e8 <HAL_RCC_GetSysClockFreq+0xcc>)
 80002dc:	e000      	b.n	80002e0 <HAL_RCC_GetSysClockFreq+0xc4>
  switch (RCC->CFGR & RCC_CFGR_SWS)
 80002de:	4803      	ldr	r0, [pc, #12]	; (80002ec <HAL_RCC_GetSysClockFreq+0xd0>)
      sysclockfreq = HSI_VALUE;
      break;
    }
  }
  return sysclockfreq;
}
 80002e0:	bd08      	pop	{r3, pc}
 80002e2:	bf00      	nop
 80002e4:	40023800 	andmi	r3, r2, r0, lsl #16
 80002e8:	007a1200 	rsbseq	r1, sl, r0, lsl #4
 80002ec:	00f42400 	rscseq	r2, r4, r0, lsl #8

080002f0 <HAL_RCC_ClockConfig>:
  if(RCC_ClkInitStruct == NULL)
 80002f0:	2800      	cmp	r0, #0
 80002f2:	f000 809b 	beq.w	800042c <HAL_RCC_ClockConfig+0x13c>
{
 80002f6:	b570      	push	{r4, r5, r6, lr}
 80002f8:	460d      	mov	r5, r1
 80002fa:	4604      	mov	r4, r0
  if(FLatency > __HAL_FLASH_GET_LATENCY())
 80002fc:	4b4f      	ldr	r3, [pc, #316]	; (800043c <HAL_RCC_ClockConfig+0x14c>)
 80002fe:	681b      	ldr	r3, [r3, #0]
 8000300:	f003 0307 	and.w	r3, r3, #7
 8000304:	428b      	cmp	r3, r1
 8000306:	d208      	bcs.n	800031a <HAL_RCC_ClockConfig+0x2a>
    __HAL_FLASH_SET_LATENCY(FLatency);
 8000308:	b2cb      	uxtb	r3, r1
 800030a:	4a4c      	ldr	r2, [pc, #304]	; (800043c <HAL_RCC_ClockConfig+0x14c>)
 800030c:	7013      	strb	r3, [r2, #0]
    if(__HAL_FLASH_GET_LATENCY() != FLatency)
 800030e:	6813      	ldr	r3, [r2, #0]
 8000310:	f003 0307 	and.w	r3, r3, #7
 8000314:	428b      	cmp	r3, r1
 8000316:	f040 808b 	bne.w	8000430 <HAL_RCC_ClockConfig+0x140>
  if(((RCC_ClkInitStruct->ClockType) & RCC_CLOCKTYPE_HCLK) == RCC_CLOCKTYPE_HCLK)
 800031a:	6823      	ldr	r3, [r4, #0]
 800031c:	f013 0f02 	tst.w	r3, #2
 8000320:	d017      	beq.n	8000352 <HAL_RCC_ClockConfig+0x62>
    if(((RCC_ClkInitStruct->ClockType) & RCC_CLOCKTYPE_PCLK1) == RCC_CLOCKTYPE_PCLK1)
 8000322:	f013 0f04 	tst.w	r3, #4
 8000326:	d004      	beq.n	8000332 <HAL_RCC_ClockConfig+0x42>
      MODIFY_REG(RCC->CFGR, RCC_CFGR_PPRE1, RCC_HCLK_DIV16);
 8000328:	4a45      	ldr	r2, [pc, #276]	; (8000440 <HAL_RCC_ClockConfig+0x150>)
 800032a:	6893      	ldr	r3, [r2, #8]
 800032c:	f443 53e0 	orr.w	r3, r3, #7168	; 0x1c00
 8000330:	6093      	str	r3, [r2, #8]
    if(((RCC_ClkInitStruct->ClockType) & RCC_CLOCKTYPE_PCLK2) == RCC_CLOCKTYPE_PCLK2)
 8000332:	6823      	ldr	r3, [r4, #0]
 8000334:	f013 0f08 	tst.w	r3, #8
 8000338:	d004      	beq.n	8000344 <HAL_RCC_ClockConfig+0x54>
      MODIFY_REG(RCC->CFGR, RCC_CFGR_PPRE2, (RCC_HCLK_DIV16 << 3));
 800033a:	4a41      	ldr	r2, [pc, #260]	; (8000440 <HAL_RCC_ClockConfig+0x150>)
 800033c:	6893      	ldr	r3, [r2, #8]
 800033e:	f443 4360 	orr.w	r3, r3, #57344	; 0xe000
 8000342:	6093      	str	r3, [r2, #8]
    MODIFY_REG(RCC->CFGR, RCC_CFGR_HPRE, RCC_ClkInitStruct->AHBCLKDivider);
 8000344:	4a3e      	ldr	r2, [pc, #248]	; (8000440 <HAL_RCC_ClockConfig+0x150>)
 8000346:	6893      	ldr	r3, [r2, #8]
 8000348:	f023 03f0 	bic.w	r3, r3, #240	; 0xf0
 800034c:	68a1      	ldr	r1, [r4, #8]
 800034e:	430b      	orrs	r3, r1
 8000350:	6093      	str	r3, [r2, #8]
  if(((RCC_ClkInitStruct->ClockType) & RCC_CLOCKTYPE_SYSCLK) == RCC_CLOCKTYPE_SYSCLK)
 8000352:	6823      	ldr	r3, [r4, #0]
 8000354:	f013 0f01 	tst.w	r3, #1
 8000358:	d032      	beq.n	80003c0 <HAL_RCC_ClockConfig+0xd0>
    if(RCC_ClkInitStruct->SYSCLKSource == RCC_SYSCLKSOURCE_HSE)
 800035a:	6863      	ldr	r3, [r4, #4]
 800035c:	2b01      	cmp	r3, #1
 800035e:	d021      	beq.n	80003a4 <HAL_RCC_ClockConfig+0xb4>
    else if((RCC_ClkInitStruct->SYSCLKSource == RCC_SYSCLKSOURCE_PLLCLK)   ||
 8000360:	1e9a      	subs	r2, r3, #2
 8000362:	2a01      	cmp	r2, #1
 8000364:	d925      	bls.n	80003b2 <HAL_RCC_ClockConfig+0xc2>
      if(__HAL_RCC_GET_FLAG(RCC_FLAG_HSIRDY) == RESET)
 8000366:	4a36      	ldr	r2, [pc, #216]	; (8000440 <HAL_RCC_ClockConfig+0x150>)
 8000368:	6812      	ldr	r2, [r2, #0]
 800036a:	f012 0f02 	tst.w	r2, #2
 800036e:	d061      	beq.n	8000434 <HAL_RCC_ClockConfig+0x144>
    __HAL_RCC_SYSCLK_CONFIG(RCC_ClkInitStruct->SYSCLKSource);
 8000370:	4933      	ldr	r1, [pc, #204]	; (8000440 <HAL_RCC_ClockConfig+0x150>)
 8000372:	688a      	ldr	r2, [r1, #8]
 8000374:	f022 0203 	bic.w	r2, r2, #3
 8000378:	4313      	orrs	r3, r2
 800037a:	608b      	str	r3, [r1, #8]
    tickstart = HAL_GetTick();
 800037c:	f000 faee 	bl	800095c <HAL_GetTick>
 8000380:	4606      	mov	r6, r0
    while (__HAL_RCC_GET_SYSCLK_SOURCE() != (RCC_ClkInitStruct->SYSCLKSource << RCC_CFGR_SWS_Pos))
 8000382:	4b2f      	ldr	r3, [pc, #188]	; (8000440 <HAL_RCC_ClockConfig+0x150>)
 8000384:	689b      	ldr	r3, [r3, #8]
 8000386:	f003 030c 	and.w	r3, r3, #12
 800038a:	6862      	ldr	r2, [r4, #4]
 800038c:	ebb3 0f82 	cmp.w	r3, r2, lsl #2
 8000390:	d016      	beq.n	80003c0 <HAL_RCC_ClockConfig+0xd0>
      if ((HAL_GetTick() - tickstart) > CLOCKSWITCH_TIMEOUT_VALUE)
 8000392:	f000 fae3 	bl	800095c <HAL_GetTick>
 8000396:	1b80      	subs	r0, r0, r6
 8000398:	f241 3388 	movw	r3, #5000	; 0x1388
 800039c:	4298      	cmp	r0, r3
 800039e:	d9f0      	bls.n	8000382 <HAL_RCC_ClockConfig+0x92>
        return HAL_TIMEOUT;
 80003a0:	2003      	movs	r0, #3
 80003a2:	e042      	b.n	800042a <HAL_RCC_ClockConfig+0x13a>
      if(__HAL_RCC_GET_FLAG(RCC_FLAG_HSERDY) == RESET)
 80003a4:	4a26      	ldr	r2, [pc, #152]	; (8000440 <HAL_RCC_ClockConfig+0x150>)
 80003a6:	6812      	ldr	r2, [r2, #0]
 80003a8:	f412 3f00 	tst.w	r2, #131072	; 0x20000
 80003ac:	d1e0      	bne.n	8000370 <HAL_RCC_ClockConfig+0x80>
        return HAL_ERROR;
 80003ae:	2001      	movs	r0, #1
 80003b0:	e03b      	b.n	800042a <HAL_RCC_ClockConfig+0x13a>
      if(__HAL_RCC_GET_FLAG(RCC_FLAG_PLLRDY) == RESET)
 80003b2:	4a23      	ldr	r2, [pc, #140]	; (8000440 <HAL_RCC_ClockConfig+0x150>)
 80003b4:	6812      	ldr	r2, [r2, #0]
 80003b6:	f012 7f00 	tst.w	r2, #33554432	; 0x2000000
 80003ba:	d1d9      	bne.n	8000370 <HAL_RCC_ClockConfig+0x80>
        return HAL_ERROR;
 80003bc:	2001      	movs	r0, #1
 80003be:	e034      	b.n	800042a <HAL_RCC_ClockConfig+0x13a>
  if(FLatency < __HAL_FLASH_GET_LATENCY())
 80003c0:	4b1e      	ldr	r3, [pc, #120]	; (800043c <HAL_RCC_ClockConfig+0x14c>)
 80003c2:	681b      	ldr	r3, [r3, #0]
 80003c4:	f003 0307 	and.w	r3, r3, #7
 80003c8:	42ab      	cmp	r3, r5
 80003ca:	d907      	bls.n	80003dc <HAL_RCC_ClockConfig+0xec>
    __HAL_FLASH_SET_LATENCY(FLatency);
 80003cc:	b2ea      	uxtb	r2, r5
 80003ce:	4b1b      	ldr	r3, [pc, #108]	; (800043c <HAL_RCC_ClockConfig+0x14c>)
 80003d0:	701a      	strb	r2, [r3, #0]
    if(__HAL_FLASH_GET_LATENCY() != FLatency)
 80003d2:	681b      	ldr	r3, [r3, #0]
 80003d4:	f003 0307 	and.w	r3, r3, #7
 80003d8:	42ab      	cmp	r3, r5
 80003da:	d12d      	bne.n	8000438 <HAL_RCC_ClockConfig+0x148>
  if(((RCC_ClkInitStruct->ClockType) & RCC_CLOCKTYPE_PCLK1) == RCC_CLOCKTYPE_PCLK1)
 80003dc:	6823      	ldr	r3, [r4, #0]
 80003de:	f013 0f04 	tst.w	r3, #4
 80003e2:	d006      	beq.n	80003f2 <HAL_RCC_ClockConfig+0x102>
    MODIFY_REG(RCC->CFGR, RCC_CFGR_PPRE1, RCC_ClkInitStruct->APB1CLKDivider);
 80003e4:	4a16      	ldr	r2, [pc, #88]	; (8000440 <HAL_RCC_ClockConfig+0x150>)
 80003e6:	6893      	ldr	r3, [r2, #8]
 80003e8:	f423 53e0 	bic.w	r3, r3, #7168	; 0x1c00
 80003ec:	68e1      	ldr	r1, [r4, #12]
 80003ee:	430b      	orrs	r3, r1
 80003f0:	6093      	str	r3, [r2, #8]
  if(((RCC_ClkInitStruct->ClockType) & RCC_CLOCKTYPE_PCLK2) == RCC_CLOCKTYPE_PCLK2)
 80003f2:	6823      	ldr	r3, [r4, #0]
 80003f4:	f013 0f08 	tst.w	r3, #8
 80003f8:	d007      	beq.n	800040a <HAL_RCC_ClockConfig+0x11a>
    MODIFY_REG(RCC->CFGR, RCC_CFGR_PPRE2, ((RCC_ClkInitStruct->APB2CLKDivider) << 3U));
 80003fa:	4a11      	ldr	r2, [pc, #68]	; (8000440 <HAL_RCC_ClockConfig+0x150>)
 80003fc:	6893      	ldr	r3, [r2, #8]
 80003fe:	f423 4360 	bic.w	r3, r3, #57344	; 0xe000
 8000402:	6921      	ldr	r1, [r4, #16]
 8000404:	ea43 03c1 	orr.w	r3, r3, r1, lsl #3
 8000408:	6093      	str	r3, [r2, #8]
  SystemCoreClock = HAL_RCC_GetSysClockFreq() >> AHBPrescTable[(RCC->CFGR & RCC_CFGR_HPRE)>> RCC_CFGR_HPRE_Pos];
 800040a:	f7ff ff07 	bl	800021c <HAL_RCC_GetSysClockFreq>
 800040e:	4b0c      	ldr	r3, [pc, #48]	; (8000440 <HAL_RCC_ClockConfig+0x150>)
 8000410:	689b      	ldr	r3, [r3, #8]
 8000412:	f3c3 1303 	ubfx	r3, r3, #4, #4
 8000416:	4a0b      	ldr	r2, [pc, #44]	; (8000444 <HAL_RCC_ClockConfig+0x154>)
 8000418:	5cd3      	ldrb	r3, [r2, r3]
 800041a:	40d8      	lsrs	r0, r3
 800041c:	4b0a      	ldr	r3, [pc, #40]	; (8000448 <HAL_RCC_ClockConfig+0x158>)
 800041e:	6018      	str	r0, [r3, #0]
  HAL_InitTick (uwTickPrio);
 8000420:	4b0a      	ldr	r3, [pc, #40]	; (800044c <HAL_RCC_ClockConfig+0x15c>)
 8000422:	6818      	ldr	r0, [r3, #0]
 8000424:	f000 fa68 	bl	80008f8 <HAL_InitTick>
  return HAL_OK;
 8000428:	2000      	movs	r0, #0
}
 800042a:	bd70      	pop	{r4, r5, r6, pc}
    return HAL_ERROR;
 800042c:	2001      	movs	r0, #1
}
 800042e:	4770      	bx	lr
      return HAL_ERROR;
 8000430:	2001      	movs	r0, #1
 8000432:	e7fa      	b.n	800042a <HAL_RCC_ClockConfig+0x13a>
        return HAL_ERROR;
 8000434:	2001      	movs	r0, #1
 8000436:	e7f8      	b.n	800042a <HAL_RCC_ClockConfig+0x13a>
      return HAL_ERROR;
 8000438:	2001      	movs	r0, #1
 800043a:	e7f6      	b.n	800042a <HAL_RCC_ClockConfig+0x13a>
 800043c:	40023c00 	andmi	r3, r2, r0, lsl #24
 8000440:	40023800 	andmi	r3, r2, r0, lsl #16
 8000444:	080022ac 	stmdaeq	r0, {r2, r3, r5, r7, r9, sp}
 8000448:	20000008 	andcs	r0, r0, r8
 800044c:	20000004 	andcs	r0, r0, r4

08000450 <HAL_RCC_OscConfig>:
HAL_StatusTypeDef HAL_RCC_OscConfig(RCC_OscInitTypeDef  *RCC_OscInitStruct)
{
  uint32_t tickstart, pll_config;

  /* Check Null pointer */
  if(RCC_OscInitStruct == NULL)
 8000450:	2800      	cmp	r0, #0
 8000452:	f000 81e5 	beq.w	8000820 <HAL_RCC_OscConfig+0x3d0>
{
 8000456:	b570      	push	{r4, r5, r6, lr}
 8000458:	b082      	sub	sp, #8
 800045a:	4604      	mov	r4, r0
  }

  /* Check the parameters */
  assert_param(IS_RCC_OSCILLATORTYPE(RCC_OscInitStruct->OscillatorType));
  /*------------------------------- HSE Configuration ------------------------*/
  if(((RCC_OscInitStruct->OscillatorType) & RCC_OSCILLATORTYPE_HSE) == RCC_OSCILLATORTYPE_HSE)
 800045c:	6803      	ldr	r3, [r0, #0]
 800045e:	f013 0f01 	tst.w	r3, #1
 8000462:	d03b      	beq.n	80004dc <HAL_RCC_OscConfig+0x8c>
#if defined(STM32F446xx)
    if((__HAL_RCC_GET_SYSCLK_SOURCE() == RCC_CFGR_SWS_HSE)                                                                     ||\
      ((__HAL_RCC_GET_SYSCLK_SOURCE() == RCC_CFGR_SWS_PLL) && ((RCC->PLLCFGR & RCC_PLLCFGR_PLLSRC) == RCC_PLLCFGR_PLLSRC_HSE)) ||\
      ((__HAL_RCC_GET_SYSCLK_SOURCE() == RCC_CFGR_SWS_PLLR) && ((RCC->PLLCFGR & RCC_PLLCFGR_PLLSRC) == RCC_PLLCFGR_PLLSRC_HSE)))
#else
    if((__HAL_RCC_GET_SYSCLK_SOURCE() == RCC_CFGR_SWS_HSE)                                                                     ||\
 8000464:	4b9f      	ldr	r3, [pc, #636]	; (80006e4 <HAL_RCC_OscConfig+0x294>)
 8000466:	689b      	ldr	r3, [r3, #8]
 8000468:	f003 030c 	and.w	r3, r3, #12
 800046c:	2b04      	cmp	r3, #4
 800046e:	d02c      	beq.n	80004ca <HAL_RCC_OscConfig+0x7a>
      ((__HAL_RCC_GET_SYSCLK_SOURCE() == RCC_CFGR_SWS_PLL) && ((RCC->PLLCFGR & RCC_PLLCFGR_PLLSRC) == RCC_PLLCFGR_PLLSRC_HSE)))
 8000470:	4b9c      	ldr	r3, [pc, #624]	; (80006e4 <HAL_RCC_OscConfig+0x294>)
 8000472:	689b      	ldr	r3, [r3, #8]
 8000474:	f003 030c 	and.w	r3, r3, #12
    if((__HAL_RCC_GET_SYSCLK_SOURCE() == RCC_CFGR_SWS_HSE)                                                                     ||\
 8000478:	2b08      	cmp	r3, #8
 800047a:	d021      	beq.n	80004c0 <HAL_RCC_OscConfig+0x70>
      }
    }
    else
    {
      /* Set the new HSE configuration ---------------------------------------*/
      __HAL_RCC_HSE_CONFIG(RCC_OscInitStruct->HSEState);
 800047c:	6863      	ldr	r3, [r4, #4]
 800047e:	f5b3 3f80 	cmp.w	r3, #65536	; 0x10000
 8000482:	d04f      	beq.n	8000524 <HAL_RCC_OscConfig+0xd4>
 8000484:	f5b3 2fa0 	cmp.w	r3, #327680	; 0x50000
 8000488:	d052      	beq.n	8000530 <HAL_RCC_OscConfig+0xe0>
 800048a:	4b96      	ldr	r3, [pc, #600]	; (80006e4 <HAL_RCC_OscConfig+0x294>)
 800048c:	681a      	ldr	r2, [r3, #0]
 800048e:	f422 3280 	bic.w	r2, r2, #65536	; 0x10000
 8000492:	601a      	str	r2, [r3, #0]
 8000494:	681a      	ldr	r2, [r3, #0]
 8000496:	f422 2280 	bic.w	r2, r2, #262144	; 0x40000
 800049a:	601a      	str	r2, [r3, #0]

      /* Check the HSE State */
      if((RCC_OscInitStruct->HSEState) != RCC_HSE_OFF)
 800049c:	6863      	ldr	r3, [r4, #4]
 800049e:	2b00      	cmp	r3, #0
 80004a0:	d050      	beq.n	8000544 <HAL_RCC_OscConfig+0xf4>
      {
        /* Get Start Tick*/
        tickstart = HAL_GetTick();
 80004a2:	f000 fa5b 	bl	800095c <HAL_GetTick>
 80004a6:	4605      	mov	r5, r0

        /* Wait till HSE is ready */
        while(__HAL_RCC_GET_FLAG(RCC_FLAG_HSERDY) == RESET)
 80004a8:	4b8e      	ldr	r3, [pc, #568]	; (80006e4 <HAL_RCC_OscConfig+0x294>)
 80004aa:	681b      	ldr	r3, [r3, #0]
 80004ac:	f413 3f00 	tst.w	r3, #131072	; 0x20000
 80004b0:	d114      	bne.n	80004dc <HAL_RCC_OscConfig+0x8c>
        {
          if((HAL_GetTick() - tickstart ) > HSE_TIMEOUT_VALUE)
 80004b2:	f000 fa53 	bl	800095c <HAL_GetTick>
 80004b6:	1b40      	subs	r0, r0, r5
 80004b8:	2864      	cmp	r0, #100	; 0x64
 80004ba:	d9f5      	bls.n	80004a8 <HAL_RCC_OscConfig+0x58>
          {
            return HAL_TIMEOUT;
 80004bc:	2003      	movs	r0, #3
 80004be:	e1b6      	b.n	800082e <HAL_RCC_OscConfig+0x3de>
      ((__HAL_RCC_GET_SYSCLK_SOURCE() == RCC_CFGR_SWS_PLL) && ((RCC->PLLCFGR & RCC_PLLCFGR_PLLSRC) == RCC_PLLCFGR_PLLSRC_HSE)))
 80004c0:	4b88      	ldr	r3, [pc, #544]	; (80006e4 <HAL_RCC_OscConfig+0x294>)
 80004c2:	685b      	ldr	r3, [r3, #4]
 80004c4:	f413 0f80 	tst.w	r3, #4194304	; 0x400000
 80004c8:	d0d8      	beq.n	800047c <HAL_RCC_OscConfig+0x2c>
      if((__HAL_RCC_GET_FLAG(RCC_FLAG_HSERDY) != RESET) && (RCC_OscInitStruct->HSEState == RCC_HSE_OFF))
 80004ca:	4b86      	ldr	r3, [pc, #536]	; (80006e4 <HAL_RCC_OscConfig+0x294>)
 80004cc:	681b      	ldr	r3, [r3, #0]
 80004ce:	f413 3f00 	tst.w	r3, #131072	; 0x20000
 80004d2:	d003      	beq.n	80004dc <HAL_RCC_OscConfig+0x8c>
 80004d4:	6863      	ldr	r3, [r4, #4]
 80004d6:	2b00      	cmp	r3, #0
 80004d8:	f000 81a4 	beq.w	8000824 <HAL_RCC_OscConfig+0x3d4>
        }
      }
    }
  }
  /*----------------------------- HSI Configuration --------------------------*/
  if(((RCC_OscInitStruct->OscillatorType) & RCC_OSCILLATORTYPE_HSI) == RCC_OSCILLATORTYPE_HSI)
 80004dc:	6823      	ldr	r3, [r4, #0]
 80004de:	f013 0f02 	tst.w	r3, #2
 80004e2:	d054      	beq.n	800058e <HAL_RCC_OscConfig+0x13e>
#if defined(STM32F446xx)
    if((__HAL_RCC_GET_SYSCLK_SOURCE() == RCC_CFGR_SWS_HSI)                                                                     ||\
      ((__HAL_RCC_GET_SYSCLK_SOURCE() == RCC_CFGR_SWS_PLL) && ((RCC->PLLCFGR & RCC_PLLCFGR_PLLSRC) == RCC_PLLCFGR_PLLSRC_HSI)) ||\
      ((__HAL_RCC_GET_SYSCLK_SOURCE() == RCC_CFGR_SWS_PLLR) && ((RCC->PLLCFGR & RCC_PLLCFGR_PLLSRC) == RCC_PLLCFGR_PLLSRC_HSI)))
#else
    if((__HAL_RCC_GET_SYSCLK_SOURCE() == RCC_CFGR_SWS_HSI)                                                                     ||\
 80004e4:	4b7f      	ldr	r3, [pc, #508]	; (80006e4 <HAL_RCC_OscConfig+0x294>)
 80004e6:	689b      	ldr	r3, [r3, #8]
 80004e8:	f013 0f0c 	tst.w	r3, #12
 80004ec:	d03e      	beq.n	800056c <HAL_RCC_OscConfig+0x11c>
      ((__HAL_RCC_GET_SYSCLK_SOURCE() == RCC_CFGR_SWS_PLL) && ((RCC->PLLCFGR & RCC_PLLCFGR_PLLSRC) == RCC_PLLCFGR_PLLSRC_HSI)))
 80004ee:	4b7d      	ldr	r3, [pc, #500]	; (80006e4 <HAL_RCC_OscConfig+0x294>)
 80004f0:	689b      	ldr	r3, [r3, #8]
 80004f2:	f003 030c 	and.w	r3, r3, #12
    if((__HAL_RCC_GET_SYSCLK_SOURCE() == RCC_CFGR_SWS_HSI)                                                                     ||\
 80004f6:	2b08      	cmp	r3, #8
 80004f8:	d033      	beq.n	8000562 <HAL_RCC_OscConfig+0x112>
      }
    }
    else
    {
      /* Check the HSI State */
      if((RCC_OscInitStruct->HSIState)!= RCC_HSI_OFF)
 80004fa:	68e3      	ldr	r3, [r4, #12]
 80004fc:	2b00      	cmp	r3, #0
 80004fe:	d15f      	bne.n	80005c0 <HAL_RCC_OscConfig+0x170>
        __HAL_RCC_HSI_CALIBRATIONVALUE_ADJUST(RCC_OscInitStruct->HSICalibrationValue);
      }
      else
      {
        /* Disable the Internal High Speed oscillator (HSI). */
        __HAL_RCC_HSI_DISABLE();
 8000500:	4b79      	ldr	r3, [pc, #484]	; (80006e8 <HAL_RCC_OscConfig+0x298>)
 8000502:	2200      	movs	r2, #0
 8000504:	601a      	str	r2, [r3, #0]

        /* Get Start Tick*/
        tickstart = HAL_GetTick();
 8000506:	f000 fa29 	bl	800095c <HAL_GetTick>
 800050a:	4605      	mov	r5, r0

        /* Wait till HSI is ready */
        while(__HAL_RCC_GET_FLAG(RCC_FLAG_HSIRDY) != RESET)
 800050c:	4b75      	ldr	r3, [pc, #468]	; (80006e4 <HAL_RCC_OscConfig+0x294>)
 800050e:	681b      	ldr	r3, [r3, #0]
 8000510:	f013 0f02 	tst.w	r3, #2
 8000514:	d03b      	beq.n	800058e <HAL_RCC_OscConfig+0x13e>
        {
          if((HAL_GetTick() - tickstart ) > HSI_TIMEOUT_VALUE)
 8000516:	f000 fa21 	bl	800095c <HAL_GetTick>
 800051a:	1b40      	subs	r0, r0, r5
 800051c:	2802      	cmp	r0, #2
 800051e:	d9f5      	bls.n	800050c <HAL_RCC_OscConfig+0xbc>
          {
            return HAL_TIMEOUT;
 8000520:	2003      	movs	r0, #3
 8000522:	e184      	b.n	800082e <HAL_RCC_OscConfig+0x3de>
      __HAL_RCC_HSE_CONFIG(RCC_OscInitStruct->HSEState);
 8000524:	4a6f      	ldr	r2, [pc, #444]	; (80006e4 <HAL_RCC_OscConfig+0x294>)
 8000526:	6813      	ldr	r3, [r2, #0]
 8000528:	f443 3380 	orr.w	r3, r3, #65536	; 0x10000
 800052c:	6013      	str	r3, [r2, #0]
 800052e:	e7b5      	b.n	800049c <HAL_RCC_OscConfig+0x4c>
 8000530:	4b6c      	ldr	r3, [pc, #432]	; (80006e4 <HAL_RCC_OscConfig+0x294>)
 8000532:	681a      	ldr	r2, [r3, #0]
 8000534:	f442 2280 	orr.w	r2, r2, #262144	; 0x40000
 8000538:	601a      	str	r2, [r3, #0]
 800053a:	681a      	ldr	r2, [r3, #0]
 800053c:	f442 3280 	orr.w	r2, r2, #65536	; 0x10000
 8000540:	601a      	str	r2, [r3, #0]
 8000542:	e7ab      	b.n	800049c <HAL_RCC_OscConfig+0x4c>
        tickstart = HAL_GetTick();
 8000544:	f000 fa0a 	bl	800095c <HAL_GetTick>
 8000548:	4605      	mov	r5, r0
        while(__HAL_RCC_GET_FLAG(RCC_FLAG_HSERDY) != RESET)
 800054a:	4b66      	ldr	r3, [pc, #408]	; (80006e4 <HAL_RCC_OscConfig+0x294>)
 800054c:	681b      	ldr	r3, [r3, #0]
 800054e:	f413 3f00 	tst.w	r3, #131072	; 0x20000
 8000552:	d0c3      	beq.n	80004dc <HAL_RCC_OscConfig+0x8c>
          if((HAL_GetTick() - tickstart ) > HSE_TIMEOUT_VALUE)
 8000554:	f000 fa02 	bl	800095c <HAL_GetTick>
 8000558:	1b40      	subs	r0, r0, r5
 800055a:	2864      	cmp	r0, #100	; 0x64
 800055c:	d9f5      	bls.n	800054a <HAL_RCC_OscConfig+0xfa>
            return HAL_TIMEOUT;
 800055e:	2003      	movs	r0, #3
 8000560:	e165      	b.n	800082e <HAL_RCC_OscConfig+0x3de>
      ((__HAL_RCC_GET_SYSCLK_SOURCE() == RCC_CFGR_SWS_PLL) && ((RCC->PLLCFGR & RCC_PLLCFGR_PLLSRC) == RCC_PLLCFGR_PLLSRC_HSI)))
 8000562:	4b60      	ldr	r3, [pc, #384]	; (80006e4 <HAL_RCC_OscConfig+0x294>)
 8000564:	685b      	ldr	r3, [r3, #4]
 8000566:	f413 0f80 	tst.w	r3, #4194304	; 0x400000
 800056a:	d1c6      	bne.n	80004fa <HAL_RCC_OscConfig+0xaa>
      if((__HAL_RCC_GET_FLAG(RCC_FLAG_HSIRDY) != RESET) && (RCC_OscInitStruct->HSIState != RCC_HSI_ON))
 800056c:	4b5d      	ldr	r3, [pc, #372]	; (80006e4 <HAL_RCC_OscConfig+0x294>)
 800056e:	681b      	ldr	r3, [r3, #0]
 8000570:	f013 0f02 	tst.w	r3, #2
 8000574:	d003      	beq.n	800057e <HAL_RCC_OscConfig+0x12e>
 8000576:	68e3      	ldr	r3, [r4, #12]
 8000578:	2b01      	cmp	r3, #1
 800057a:	f040 8155 	bne.w	8000828 <HAL_RCC_OscConfig+0x3d8>
        __HAL_RCC_HSI_CALIBRATIONVALUE_ADJUST(RCC_OscInitStruct->HSICalibrationValue);
 800057e:	4a59      	ldr	r2, [pc, #356]	; (80006e4 <HAL_RCC_OscConfig+0x294>)
 8000580:	6813      	ldr	r3, [r2, #0]
 8000582:	f023 03f8 	bic.w	r3, r3, #248	; 0xf8
 8000586:	6921      	ldr	r1, [r4, #16]
 8000588:	ea43 03c1 	orr.w	r3, r3, r1, lsl #3
 800058c:	6013      	str	r3, [r2, #0]
        }
      }
    }
  }
  /*------------------------------ LSI Configuration -------------------------*/
  if(((RCC_OscInitStruct->OscillatorType) & RCC_OSCILLATORTYPE_LSI) == RCC_OSCILLATORTYPE_LSI)
 800058e:	6823      	ldr	r3, [r4, #0]
 8000590:	f013 0f08 	tst.w	r3, #8
 8000594:	d042      	beq.n	800061c <HAL_RCC_OscConfig+0x1cc>
  {
    /* Check the parameters */
    assert_param(IS_RCC_LSI(RCC_OscInitStruct->LSIState));

    /* Check the LSI State */
    if((RCC_OscInitStruct->LSIState)!= RCC_LSI_OFF)
 8000596:	6963      	ldr	r3, [r4, #20]
 8000598:	b36b      	cbz	r3, 80005f6 <HAL_RCC_OscConfig+0x1a6>
    {
      /* Enable the Internal Low Speed oscillator (LSI). */
      __HAL_RCC_LSI_ENABLE();
 800059a:	4b53      	ldr	r3, [pc, #332]	; (80006e8 <HAL_RCC_OscConfig+0x298>)
 800059c:	2201      	movs	r2, #1
 800059e:	f8c3 2e80 	str.w	r2, [r3, #3712]	; 0xe80

      /* Get Start Tick*/
      tickstart = HAL_GetTick();
 80005a2:	f000 f9db 	bl	800095c <HAL_GetTick>
 80005a6:	4605      	mov	r5, r0

      /* Wait till LSI is ready */
      while(__HAL_RCC_GET_FLAG(RCC_FLAG_LSIRDY) == RESET)
 80005a8:	4b4e      	ldr	r3, [pc, #312]	; (80006e4 <HAL_RCC_OscConfig+0x294>)
 80005aa:	6f5b      	ldr	r3, [r3, #116]	; 0x74
 80005ac:	f013 0f02 	tst.w	r3, #2
 80005b0:	d134      	bne.n	800061c <HAL_RCC_OscConfig+0x1cc>
      {
        if((HAL_GetTick() - tickstart ) > LSI_TIMEOUT_VALUE)
 80005b2:	f000 f9d3 	bl	800095c <HAL_GetTick>
 80005b6:	1b40      	subs	r0, r0, r5
 80005b8:	2802      	cmp	r0, #2
 80005ba:	d9f5      	bls.n	80005a8 <HAL_RCC_OscConfig+0x158>
        {
          return HAL_TIMEOUT;
 80005bc:	2003      	movs	r0, #3
 80005be:	e136      	b.n	800082e <HAL_RCC_OscConfig+0x3de>
        __HAL_RCC_HSI_ENABLE();
 80005c0:	4b49      	ldr	r3, [pc, #292]	; (80006e8 <HAL_RCC_OscConfig+0x298>)
 80005c2:	2201      	movs	r2, #1
 80005c4:	601a      	str	r2, [r3, #0]
        tickstart = HAL_GetTick();
 80005c6:	f000 f9c9 	bl	800095c <HAL_GetTick>
 80005ca:	4605      	mov	r5, r0
        while(__HAL_RCC_GET_FLAG(RCC_FLAG_HSIRDY) == RESET)
 80005cc:	4b45      	ldr	r3, [pc, #276]	; (80006e4 <HAL_RCC_OscConfig+0x294>)
 80005ce:	681b      	ldr	r3, [r3, #0]
 80005d0:	f013 0f02 	tst.w	r3, #2
 80005d4:	d106      	bne.n	80005e4 <HAL_RCC_OscConfig+0x194>
          if((HAL_GetTick() - tickstart ) > HSI_TIMEOUT_VALUE)
 80005d6:	f000 f9c1 	bl	800095c <HAL_GetTick>
 80005da:	1b40      	subs	r0, r0, r5
 80005dc:	2802      	cmp	r0, #2
 80005de:	d9f5      	bls.n	80005cc <HAL_RCC_OscConfig+0x17c>
            return HAL_TIMEOUT;
 80005e0:	2003      	movs	r0, #3
 80005e2:	e124      	b.n	800082e <HAL_RCC_OscConfig+0x3de>
        __HAL_RCC_HSI_CALIBRATIONVALUE_ADJUST(RCC_OscInitStruct->HSICalibrationValue);
 80005e4:	4a3f      	ldr	r2, [pc, #252]	; (80006e4 <HAL_RCC_OscConfig+0x294>)
 80005e6:	6813      	ldr	r3, [r2, #0]
 80005e8:	f023 03f8 	bic.w	r3, r3, #248	; 0xf8
 80005ec:	6921      	ldr	r1, [r4, #16]
 80005ee:	ea43 03c1 	orr.w	r3, r3, r1, lsl #3
 80005f2:	6013      	str	r3, [r2, #0]
 80005f4:	e7cb      	b.n	800058e <HAL_RCC_OscConfig+0x13e>
      }
    }
    else
    {
      /* Disable the Internal Low Speed oscillator (LSI). */
      __HAL_RCC_LSI_DISABLE();
 80005f6:	4b3c      	ldr	r3, [pc, #240]	; (80006e8 <HAL_RCC_OscConfig+0x298>)
 80005f8:	2200      	movs	r2, #0
 80005fa:	f8c3 2e80 	str.w	r2, [r3, #3712]	; 0xe80

      /* Get Start Tick*/
      tickstart = HAL_GetTick();
 80005fe:	f000 f9ad 	bl	800095c <HAL_GetTick>
 8000602:	4605      	mov	r5, r0

      /* Wait till LSI is ready */
      while(__HAL_RCC_GET_FLAG(RCC_FLAG_LSIRDY) != RESET)
 8000604:	4b37      	ldr	r3, [pc, #220]	; (80006e4 <HAL_RCC_OscConfig+0x294>)
 8000606:	6f5b      	ldr	r3, [r3, #116]	; 0x74
 8000608:	f013 0f02 	tst.w	r3, #2
 800060c:	d006      	beq.n	800061c <HAL_RCC_OscConfig+0x1cc>
      {
        if((HAL_GetTick() - tickstart ) > LSI_TIMEOUT_VALUE)
 800060e:	f000 f9a5 	bl	800095c <HAL_GetTick>
 8000612:	1b40      	subs	r0, r0, r5
 8000614:	2802      	cmp	r0, #2
 8000616:	d9f5      	bls.n	8000604 <HAL_RCC_OscConfig+0x1b4>
        {
          return HAL_TIMEOUT;
 8000618:	2003      	movs	r0, #3
 800061a:	e108      	b.n	800082e <HAL_RCC_OscConfig+0x3de>
        }
      }
    }
  }
  /*------------------------------ LSE Configuration -------------------------*/
  if(((RCC_OscInitStruct->OscillatorType) & RCC_OSCILLATORTYPE_LSE) == RCC_OSCILLATORTYPE_LSE)
 800061c:	6823      	ldr	r3, [r4, #0]
 800061e:	f013 0f04 	tst.w	r3, #4
 8000622:	d077      	beq.n	8000714 <HAL_RCC_OscConfig+0x2c4>
    /* Check the parameters */
    assert_param(IS_RCC_LSE(RCC_OscInitStruct->LSEState));

    /* Update LSE configuration in Backup Domain control register    */
    /* Requires to enable write access to Backup Domain of necessary */
    if(__HAL_RCC_PWR_IS_CLK_DISABLED())
 8000624:	4b2f      	ldr	r3, [pc, #188]	; (80006e4 <HAL_RCC_OscConfig+0x294>)
 8000626:	6c1b      	ldr	r3, [r3, #64]	; 0x40
 8000628:	f013 5f80 	tst.w	r3, #268435456	; 0x10000000
 800062c:	d133      	bne.n	8000696 <HAL_RCC_OscConfig+0x246>
    {
      __HAL_RCC_PWR_CLK_ENABLE();
 800062e:	2300      	movs	r3, #0
 8000630:	9301      	str	r3, [sp, #4]
 8000632:	4b2c      	ldr	r3, [pc, #176]	; (80006e4 <HAL_RCC_OscConfig+0x294>)
 8000634:	6c1a      	ldr	r2, [r3, #64]	; 0x40
 8000636:	f042 5280 	orr.w	r2, r2, #268435456	; 0x10000000
 800063a:	641a      	str	r2, [r3, #64]	; 0x40
 800063c:	6c1b      	ldr	r3, [r3, #64]	; 0x40
 800063e:	f003 5380 	and.w	r3, r3, #268435456	; 0x10000000
 8000642:	9301      	str	r3, [sp, #4]
 8000644:	9b01      	ldr	r3, [sp, #4]
      pwrclkchanged = SET;
 8000646:	2501      	movs	r5, #1
    }

    if(HAL_IS_BIT_CLR(PWR->CR, PWR_CR_DBP))
 8000648:	4b28      	ldr	r3, [pc, #160]	; (80006ec <HAL_RCC_OscConfig+0x29c>)
 800064a:	681b      	ldr	r3, [r3, #0]
 800064c:	f413 7f80 	tst.w	r3, #256	; 0x100
 8000650:	d023      	beq.n	800069a <HAL_RCC_OscConfig+0x24a>
        }
      }
    }

    /* Set the new LSE configuration -----------------------------------------*/
    __HAL_RCC_LSE_CONFIG(RCC_OscInitStruct->LSEState);
 8000652:	68a3      	ldr	r3, [r4, #8]
 8000654:	2b01      	cmp	r3, #1
 8000656:	d034      	beq.n	80006c2 <HAL_RCC_OscConfig+0x272>
 8000658:	2b05      	cmp	r3, #5
 800065a:	d038      	beq.n	80006ce <HAL_RCC_OscConfig+0x27e>
 800065c:	4b21      	ldr	r3, [pc, #132]	; (80006e4 <HAL_RCC_OscConfig+0x294>)
 800065e:	6f1a      	ldr	r2, [r3, #112]	; 0x70
 8000660:	f022 0201 	bic.w	r2, r2, #1
 8000664:	671a      	str	r2, [r3, #112]	; 0x70
 8000666:	6f1a      	ldr	r2, [r3, #112]	; 0x70
 8000668:	f022 0204 	bic.w	r2, r2, #4
 800066c:	671a      	str	r2, [r3, #112]	; 0x70
    /* Check the LSE State */
    if((RCC_OscInitStruct->LSEState) != RCC_LSE_OFF)
 800066e:	68a3      	ldr	r3, [r4, #8]
 8000670:	2b00      	cmp	r3, #0
 8000672:	d03d      	beq.n	80006f0 <HAL_RCC_OscConfig+0x2a0>
    {
      /* Get Start Tick*/
      tickstart = HAL_GetTick();
 8000674:	f000 f972 	bl	800095c <HAL_GetTick>
 8000678:	4606      	mov	r6, r0

      /* Wait till LSE is ready */
      while(__HAL_RCC_GET_FLAG(RCC_FLAG_LSERDY) == RESET)
 800067a:	4b1a      	ldr	r3, [pc, #104]	; (80006e4 <HAL_RCC_OscConfig+0x294>)
 800067c:	6f1b      	ldr	r3, [r3, #112]	; 0x70
 800067e:	f013 0f02 	tst.w	r3, #2
 8000682:	d146      	bne.n	8000712 <HAL_RCC_OscConfig+0x2c2>
      {
        if((HAL_GetTick() - tickstart ) > RCC_LSE_TIMEOUT_VALUE)
 8000684:	f000 f96a 	bl	800095c <HAL_GetTick>
 8000688:	1b80      	subs	r0, r0, r6
 800068a:	f241 3388 	movw	r3, #5000	; 0x1388
 800068e:	4298      	cmp	r0, r3
 8000690:	d9f3      	bls.n	800067a <HAL_RCC_OscConfig+0x22a>
        {
          return HAL_TIMEOUT;
 8000692:	2003      	movs	r0, #3
 8000694:	e0cb      	b.n	800082e <HAL_RCC_OscConfig+0x3de>
    FlagStatus       pwrclkchanged = RESET;
 8000696:	2500      	movs	r5, #0
 8000698:	e7d6      	b.n	8000648 <HAL_RCC_OscConfig+0x1f8>
      SET_BIT(PWR->CR, PWR_CR_DBP);
 800069a:	4a14      	ldr	r2, [pc, #80]	; (80006ec <HAL_RCC_OscConfig+0x29c>)
 800069c:	6813      	ldr	r3, [r2, #0]
 800069e:	f443 7380 	orr.w	r3, r3, #256	; 0x100
 80006a2:	6013      	str	r3, [r2, #0]
      tickstart = HAL_GetTick();
 80006a4:	f000 f95a 	bl	800095c <HAL_GetTick>
 80006a8:	4606      	mov	r6, r0
      while(HAL_IS_BIT_CLR(PWR->CR, PWR_CR_DBP))
 80006aa:	4b10      	ldr	r3, [pc, #64]	; (80006ec <HAL_RCC_OscConfig+0x29c>)
 80006ac:	681b      	ldr	r3, [r3, #0]
 80006ae:	f413 7f80 	tst.w	r3, #256	; 0x100
 80006b2:	d1ce      	bne.n	8000652 <HAL_RCC_OscConfig+0x202>
        if((HAL_GetTick() - tickstart) > RCC_DBP_TIMEOUT_VALUE)
 80006b4:	f000 f952 	bl	800095c <HAL_GetTick>
 80006b8:	1b80      	subs	r0, r0, r6
 80006ba:	2802      	cmp	r0, #2
 80006bc:	d9f5      	bls.n	80006aa <HAL_RCC_OscConfig+0x25a>
          return HAL_TIMEOUT;
 80006be:	2003      	movs	r0, #3
 80006c0:	e0b5      	b.n	800082e <HAL_RCC_OscConfig+0x3de>
    __HAL_RCC_LSE_CONFIG(RCC_OscInitStruct->LSEState);
 80006c2:	4a08      	ldr	r2, [pc, #32]	; (80006e4 <HAL_RCC_OscConfig+0x294>)
 80006c4:	6f13      	ldr	r3, [r2, #112]	; 0x70
 80006c6:	f043 0301 	orr.w	r3, r3, #1
 80006ca:	6713      	str	r3, [r2, #112]	; 0x70
 80006cc:	e7cf      	b.n	800066e <HAL_RCC_OscConfig+0x21e>
 80006ce:	4b05      	ldr	r3, [pc, #20]	; (80006e4 <HAL_RCC_OscConfig+0x294>)
 80006d0:	6f1a      	ldr	r2, [r3, #112]	; 0x70
 80006d2:	f042 0204 	orr.w	r2, r2, #4
 80006d6:	671a      	str	r2, [r3, #112]	; 0x70
 80006d8:	6f1a      	ldr	r2, [r3, #112]	; 0x70
 80006da:	f042 0201 	orr.w	r2, r2, #1
 80006de:	671a      	str	r2, [r3, #112]	; 0x70
 80006e0:	e7c5      	b.n	800066e <HAL_RCC_OscConfig+0x21e>
 80006e2:	bf00      	nop
 80006e4:	40023800 	andmi	r3, r2, r0, lsl #16
 80006e8:	42470000 	submi	r0, r7, #0
 80006ec:	40007000 	andmi	r7, r0, r0
      }
    }
    else
    {
      /* Get Start Tick*/
      tickstart = HAL_GetTick();
 80006f0:	f000 f934 	bl	800095c <HAL_GetTick>
 80006f4:	4606      	mov	r6, r0

      /* Wait till LSE is ready */
      while(__HAL_RCC_GET_FLAG(RCC_FLAG_LSERDY) != RESET)
 80006f6:	4b58      	ldr	r3, [pc, #352]	; (8000858 <HAL_RCC_OscConfig+0x408>)
 80006f8:	6f1b      	ldr	r3, [r3, #112]	; 0x70
 80006fa:	f013 0f02 	tst.w	r3, #2
 80006fe:	d008      	beq.n	8000712 <HAL_RCC_OscConfig+0x2c2>
      {
        if((HAL_GetTick() - tickstart ) > RCC_LSE_TIMEOUT_VALUE)
 8000700:	f000 f92c 	bl	800095c <HAL_GetTick>
 8000704:	1b80      	subs	r0, r0, r6
 8000706:	f241 3388 	movw	r3, #5000	; 0x1388
 800070a:	4298      	cmp	r0, r3
 800070c:	d9f3      	bls.n	80006f6 <HAL_RCC_OscConfig+0x2a6>
        {
          return HAL_TIMEOUT;
 800070e:	2003      	movs	r0, #3
 8000710:	e08d      	b.n	800082e <HAL_RCC_OscConfig+0x3de>
        }
      }
    }

    /* Restore clock configuration if changed */
    if(pwrclkchanged == SET)
 8000712:	b9ed      	cbnz	r5, 8000750 <HAL_RCC_OscConfig+0x300>
    }
  }
  /*-------------------------------- PLL Configuration -----------------------*/
  /* Check the parameters */
  assert_param(IS_RCC_PLL(RCC_OscInitStruct->PLL.PLLState));
  if ((RCC_OscInitStruct->PLL.PLLState) != RCC_PLL_NONE)
 8000714:	69a3      	ldr	r3, [r4, #24]
 8000716:	2b00      	cmp	r3, #0
 8000718:	f000 8088 	beq.w	800082c <HAL_RCC_OscConfig+0x3dc>
  {
    /* Check if the PLL is used as system clock or not */
    if(__HAL_RCC_GET_SYSCLK_SOURCE() != RCC_CFGR_SWS_PLL)
 800071c:	4a4e      	ldr	r2, [pc, #312]	; (8000858 <HAL_RCC_OscConfig+0x408>)
 800071e:	6892      	ldr	r2, [r2, #8]
 8000720:	f002 020c 	and.w	r2, r2, #12
 8000724:	2a08      	cmp	r2, #8
 8000726:	d050      	beq.n	80007ca <HAL_RCC_OscConfig+0x37a>
    {
      if((RCC_OscInitStruct->PLL.PLLState) == RCC_PLL_ON)
 8000728:	2b02      	cmp	r3, #2
 800072a:	d017      	beq.n	800075c <HAL_RCC_OscConfig+0x30c>
        }
      }
      else
      {
        /* Disable the main PLL. */
        __HAL_RCC_PLL_DISABLE();
 800072c:	4b4b      	ldr	r3, [pc, #300]	; (800085c <HAL_RCC_OscConfig+0x40c>)
 800072e:	2200      	movs	r2, #0
 8000730:	661a      	str	r2, [r3, #96]	; 0x60

        /* Get Start Tick*/
        tickstart = HAL_GetTick();
 8000732:	f000 f913 	bl	800095c <HAL_GetTick>
 8000736:	4604      	mov	r4, r0

        /* Wait till PLL is ready */
        while(__HAL_RCC_GET_FLAG(RCC_FLAG_PLLRDY) != RESET)
 8000738:	4b47      	ldr	r3, [pc, #284]	; (8000858 <HAL_RCC_OscConfig+0x408>)
 800073a:	681b      	ldr	r3, [r3, #0]
 800073c:	f013 7f00 	tst.w	r3, #33554432	; 0x2000000
 8000740:	d079      	beq.n	8000836 <HAL_RCC_OscConfig+0x3e6>
        {
          if((HAL_GetTick() - tickstart ) > PLL_TIMEOUT_VALUE)
 8000742:	f000 f90b 	bl	800095c <HAL_GetTick>
 8000746:	1b00      	subs	r0, r0, r4
 8000748:	2802      	cmp	r0, #2
 800074a:	d9f5      	bls.n	8000738 <HAL_RCC_OscConfig+0x2e8>
          {
            return HAL_TIMEOUT;
 800074c:	2003      	movs	r0, #3
 800074e:	e06e      	b.n	800082e <HAL_RCC_OscConfig+0x3de>
      __HAL_RCC_PWR_CLK_DISABLE();
 8000750:	4a41      	ldr	r2, [pc, #260]	; (8000858 <HAL_RCC_OscConfig+0x408>)
 8000752:	6c13      	ldr	r3, [r2, #64]	; 0x40
 8000754:	f023 5380 	bic.w	r3, r3, #268435456	; 0x10000000
 8000758:	6413      	str	r3, [r2, #64]	; 0x40
 800075a:	e7db      	b.n	8000714 <HAL_RCC_OscConfig+0x2c4>
        __HAL_RCC_PLL_DISABLE();
 800075c:	4b3f      	ldr	r3, [pc, #252]	; (800085c <HAL_RCC_OscConfig+0x40c>)
 800075e:	2200      	movs	r2, #0
 8000760:	661a      	str	r2, [r3, #96]	; 0x60
        tickstart = HAL_GetTick();
 8000762:	f000 f8fb 	bl	800095c <HAL_GetTick>
 8000766:	4605      	mov	r5, r0
        while(__HAL_RCC_GET_FLAG(RCC_FLAG_PLLRDY) != RESET)
 8000768:	4b3b      	ldr	r3, [pc, #236]	; (8000858 <HAL_RCC_OscConfig+0x408>)
 800076a:	681b      	ldr	r3, [r3, #0]
 800076c:	f013 7f00 	tst.w	r3, #33554432	; 0x2000000
 8000770:	d006      	beq.n	8000780 <HAL_RCC_OscConfig+0x330>
          if((HAL_GetTick() - tickstart ) > PLL_TIMEOUT_VALUE)
 8000772:	f000 f8f3 	bl	800095c <HAL_GetTick>
 8000776:	1b40      	subs	r0, r0, r5
 8000778:	2802      	cmp	r0, #2
 800077a:	d9f5      	bls.n	8000768 <HAL_RCC_OscConfig+0x318>
            return HAL_TIMEOUT;
 800077c:	2003      	movs	r0, #3
 800077e:	e056      	b.n	800082e <HAL_RCC_OscConfig+0x3de>
        WRITE_REG(RCC->PLLCFGR, (RCC_OscInitStruct->PLL.PLLSource                                            | \
 8000780:	69e3      	ldr	r3, [r4, #28]
 8000782:	6a22      	ldr	r2, [r4, #32]
 8000784:	4313      	orrs	r3, r2
 8000786:	6a62      	ldr	r2, [r4, #36]	; 0x24
 8000788:	ea43 1382 	orr.w	r3, r3, r2, lsl #6
 800078c:	6aa2      	ldr	r2, [r4, #40]	; 0x28
 800078e:	0852      	lsrs	r2, r2, #1
 8000790:	3a01      	subs	r2, #1
 8000792:	ea43 4302 	orr.w	r3, r3, r2, lsl #16
 8000796:	6ae2      	ldr	r2, [r4, #44]	; 0x2c
 8000798:	ea43 6302 	orr.w	r3, r3, r2, lsl #24
 800079c:	6b22      	ldr	r2, [r4, #48]	; 0x30
 800079e:	ea43 7302 	orr.w	r3, r3, r2, lsl #28
 80007a2:	4a2d      	ldr	r2, [pc, #180]	; (8000858 <HAL_RCC_OscConfig+0x408>)
 80007a4:	6053      	str	r3, [r2, #4]
        __HAL_RCC_PLL_ENABLE();
 80007a6:	4b2d      	ldr	r3, [pc, #180]	; (800085c <HAL_RCC_OscConfig+0x40c>)
 80007a8:	2201      	movs	r2, #1
 80007aa:	661a      	str	r2, [r3, #96]	; 0x60
        tickstart = HAL_GetTick();
 80007ac:	f000 f8d6 	bl	800095c <HAL_GetTick>
 80007b0:	4604      	mov	r4, r0
        while(__HAL_RCC_GET_FLAG(RCC_FLAG_PLLRDY) == RESET)
 80007b2:	4b29      	ldr	r3, [pc, #164]	; (8000858 <HAL_RCC_OscConfig+0x408>)
 80007b4:	681b      	ldr	r3, [r3, #0]
 80007b6:	f013 7f00 	tst.w	r3, #33554432	; 0x2000000
 80007ba:	d13a      	bne.n	8000832 <HAL_RCC_OscConfig+0x3e2>
          if((HAL_GetTick() - tickstart ) > PLL_TIMEOUT_VALUE)
 80007bc:	f000 f8ce 	bl	800095c <HAL_GetTick>
 80007c0:	1b00      	subs	r0, r0, r4
 80007c2:	2802      	cmp	r0, #2
 80007c4:	d9f5      	bls.n	80007b2 <HAL_RCC_OscConfig+0x362>
            return HAL_TIMEOUT;
 80007c6:	2003      	movs	r0, #3
 80007c8:	e031      	b.n	800082e <HAL_RCC_OscConfig+0x3de>
      }
    }
    else
    {
      /* Check if there is a request to disable the PLL used as System clock source */
      if((RCC_OscInitStruct->PLL.PLLState) == RCC_PLL_OFF)
 80007ca:	2b01      	cmp	r3, #1
 80007cc:	d035      	beq.n	800083a <HAL_RCC_OscConfig+0x3ea>
        return HAL_ERROR;
      }
      else
      {
        /* Do not return HAL_ERROR if request repeats the current configuration */
        pll_config = RCC->PLLCFGR;
 80007ce:	4b22      	ldr	r3, [pc, #136]	; (8000858 <HAL_RCC_OscConfig+0x408>)
 80007d0:	685b      	ldr	r3, [r3, #4]
#if defined (RCC_PLLCFGR_PLLR)
        if (((RCC_OscInitStruct->PLL.PLLState) == RCC_PLL_OFF) ||
            (READ_BIT(pll_config, RCC_PLLCFGR_PLLSRC) != RCC_OscInitStruct->PLL.PLLSource) ||
 80007d2:	f403 0180 	and.w	r1, r3, #4194304	; 0x400000
 80007d6:	69e2      	ldr	r2, [r4, #28]
        if (((RCC_OscInitStruct->PLL.PLLState) == RCC_PLL_OFF) ||
 80007d8:	4291      	cmp	r1, r2
 80007da:	d130      	bne.n	800083e <HAL_RCC_OscConfig+0x3ee>
            (READ_BIT(pll_config, RCC_PLLCFGR_PLLM) != (RCC_OscInitStruct->PLL.PLLM) << RCC_PLLCFGR_PLLM_Pos) ||
 80007dc:	f003 023f 	and.w	r2, r3, #63	; 0x3f
 80007e0:	6a21      	ldr	r1, [r4, #32]
            (READ_BIT(pll_config, RCC_PLLCFGR_PLLSRC) != RCC_OscInitStruct->PLL.PLLSource) ||
 80007e2:	428a      	cmp	r2, r1
 80007e4:	d12d      	bne.n	8000842 <HAL_RCC_OscConfig+0x3f2>
            (READ_BIT(pll_config, RCC_PLLCFGR_PLLN) != (RCC_OscInitStruct->PLL.PLLN) << RCC_PLLCFGR_PLLN_Pos) ||
 80007e6:	6a61      	ldr	r1, [r4, #36]	; 0x24
            (READ_BIT(pll_config, RCC_PLLCFGR_PLLM) != (RCC_OscInitStruct->PLL.PLLM) << RCC_PLLCFGR_PLLM_Pos) ||
 80007e8:	f647 72c0 	movw	r2, #32704	; 0x7fc0
 80007ec:	401a      	ands	r2, r3
 80007ee:	ebb2 1f81 	cmp.w	r2, r1, lsl #6
 80007f2:	d128      	bne.n	8000846 <HAL_RCC_OscConfig+0x3f6>
            (READ_BIT(pll_config, RCC_PLLCFGR_PLLP) != (((RCC_OscInitStruct->PLL.PLLP >> 1U) - 1U)) << RCC_PLLCFGR_PLLP_Pos) ||
 80007f4:	f403 3140 	and.w	r1, r3, #196608	; 0x30000
 80007f8:	6aa2      	ldr	r2, [r4, #40]	; 0x28
 80007fa:	0852      	lsrs	r2, r2, #1
 80007fc:	3a01      	subs	r2, #1
            (READ_BIT(pll_config, RCC_PLLCFGR_PLLN) != (RCC_OscInitStruct->PLL.PLLN) << RCC_PLLCFGR_PLLN_Pos) ||
 80007fe:	ebb1 4f02 	cmp.w	r1, r2, lsl #16
 8000802:	d122      	bne.n	800084a <HAL_RCC_OscConfig+0x3fa>
            (READ_BIT(pll_config, RCC_PLLCFGR_PLLQ) != (RCC_OscInitStruct->PLL.PLLQ << RCC_PLLCFGR_PLLQ_Pos)) ||
 8000804:	f003 6270 	and.w	r2, r3, #251658240	; 0xf000000
 8000808:	6ae1      	ldr	r1, [r4, #44]	; 0x2c
            (READ_BIT(pll_config, RCC_PLLCFGR_PLLP) != (((RCC_OscInitStruct->PLL.PLLP >> 1U) - 1U)) << RCC_PLLCFGR_PLLP_Pos) ||
 800080a:	ebb2 6f01 	cmp.w	r2, r1, lsl #24
 800080e:	d11e      	bne.n	800084e <HAL_RCC_OscConfig+0x3fe>
            (READ_BIT(pll_config, RCC_PLLCFGR_PLLR) != (RCC_OscInitStruct->PLL.PLLR << RCC_PLLCFGR_PLLR_Pos)))
 8000810:	f003 43e0 	and.w	r3, r3, #1879048192	; 0x70000000
 8000814:	6b22      	ldr	r2, [r4, #48]	; 0x30
            (READ_BIT(pll_config, RCC_PLLCFGR_PLLQ) != (RCC_OscInitStruct->PLL.PLLQ << RCC_PLLCFGR_PLLQ_Pos)) ||
 8000816:	ebb3 7f02 	cmp.w	r3, r2, lsl #28
 800081a:	d11a      	bne.n	8000852 <HAL_RCC_OscConfig+0x402>
          return HAL_ERROR;
        }
      }
    }
  }
  return HAL_OK;
 800081c:	2000      	movs	r0, #0
 800081e:	e006      	b.n	800082e <HAL_RCC_OscConfig+0x3de>
    return HAL_ERROR;
 8000820:	2001      	movs	r0, #1
}
 8000822:	4770      	bx	lr
        return HAL_ERROR;
 8000824:	2001      	movs	r0, #1
 8000826:	e002      	b.n	800082e <HAL_RCC_OscConfig+0x3de>
        return HAL_ERROR;
 8000828:	2001      	movs	r0, #1
 800082a:	e000      	b.n	800082e <HAL_RCC_OscConfig+0x3de>
  return HAL_OK;
 800082c:	2000      	movs	r0, #0
}
 800082e:	b002      	add	sp, #8
 8000830:	bd70      	pop	{r4, r5, r6, pc}
  return HAL_OK;
 8000832:	2000      	movs	r0, #0
 8000834:	e7fb      	b.n	800082e <HAL_RCC_OscConfig+0x3de>
 8000836:	2000      	movs	r0, #0
 8000838:	e7f9      	b.n	800082e <HAL_RCC_OscConfig+0x3de>
        return HAL_ERROR;
 800083a:	2001      	movs	r0, #1
 800083c:	e7f7      	b.n	800082e <HAL_RCC_OscConfig+0x3de>
          return HAL_ERROR;
 800083e:	2001      	movs	r0, #1
 8000840:	e7f5      	b.n	800082e <HAL_RCC_OscConfig+0x3de>
 8000842:	2001      	movs	r0, #1
 8000844:	e7f3      	b.n	800082e <HAL_RCC_OscConfig+0x3de>
 8000846:	2001      	movs	r0, #1
 8000848:	e7f1      	b.n	800082e <HAL_RCC_OscConfig+0x3de>
 800084a:	2001      	movs	r0, #1
 800084c:	e7ef      	b.n	800082e <HAL_RCC_OscConfig+0x3de>
 800084e:	2001      	movs	r0, #1
 8000850:	e7ed      	b.n	800082e <HAL_RCC_OscConfig+0x3de>
 8000852:	2001      	movs	r0, #1
 8000854:	e7eb      	b.n	800082e <HAL_RCC_OscConfig+0x3de>
 8000856:	bf00      	nop
 8000858:	40023800 	andmi	r3, r2, r0, lsl #16
 800085c:	42470000 	submi	r0, r7, #0

08000860 <HAL_NVIC_SetPriority>:
  *         This parameter can be a value between 0 and 15
  *         A lower priority value indicates a higher priority.          
  * @retval None
  */
void HAL_NVIC_SetPriority(IRQn_Type IRQn, uint32_t PreemptPriority, uint32_t SubPriority)
{ 
 8000860:	b500      	push	{lr}
  \details Reads the priority grouping field from the NVIC Interrupt Controller.
  \return                Priority grouping field (SCB->AIRCR [10:8] PRIGROUP field).
 */
__STATIC_INLINE uint32_t __NVIC_GetPriorityGrouping(void)
{
  return ((uint32_t)((SCB->AIRCR & SCB_AIRCR_PRIGROUP_Msk) >> SCB_AIRCR_PRIGROUP_Pos));
 8000862:	4b19      	ldr	r3, [pc, #100]	; (80008c8 <HAL_NVIC_SetPriority+0x68>)
 8000864:	68db      	ldr	r3, [r3, #12]
 8000866:	f3c3 2302 	ubfx	r3, r3, #8, #3
{
  uint32_t PriorityGroupTmp = (PriorityGroup & (uint32_t)0x07UL);   /* only values 0..7 are used          */
  uint32_t PreemptPriorityBits;
  uint32_t SubPriorityBits;

  PreemptPriorityBits = ((7UL - PriorityGroupTmp) > (uint32_t)(__NVIC_PRIO_BITS)) ? (uint32_t)(__NVIC_PRIO_BITS) : (uint32_t)(7UL - PriorityGroupTmp);
 800086a:	f1c3 0c07 	rsb	ip, r3, #7
 800086e:	f1bc 0f04 	cmp.w	ip, #4
 8000872:	bf28      	it	cs
 8000874:	f04f 0c04 	movcs.w	ip, #4
  SubPriorityBits     = ((PriorityGroupTmp + (uint32_t)(__NVIC_PRIO_BITS)) < (uint32_t)7UL) ? (uint32_t)0UL : (uint32_t)((PriorityGroupTmp - 7UL) + (uint32_t)(__NVIC_PRIO_BITS));
 8000878:	f103 0e04 	add.w	lr, r3, #4
 800087c:	f1be 0f06 	cmp.w	lr, #6
 8000880:	d918      	bls.n	80008b4 <HAL_NVIC_SetPriority+0x54>
 8000882:	3b03      	subs	r3, #3

  return (
           ((PreemptPriority & (uint32_t)((1UL << (PreemptPriorityBits)) - 1UL)) << SubPriorityBits) |
 8000884:	f04f 3eff 	mov.w	lr, #4294967295	; 0xffffffff
 8000888:	fa0e fc0c 	lsl.w	ip, lr, ip
 800088c:	ea21 010c 	bic.w	r1, r1, ip
 8000890:	4099      	lsls	r1, r3
           ((SubPriority     & (uint32_t)((1UL << (SubPriorityBits    )) - 1UL)))
 8000892:	fa0e f303 	lsl.w	r3, lr, r3
 8000896:	ea22 0303 	bic.w	r3, r2, r3
         );
 800089a:	4319      	orrs	r1, r3
  if ((int32_t)(IRQn) >= 0)
 800089c:	2800      	cmp	r0, #0
 800089e:	db0b      	blt.n	80008b8 <HAL_NVIC_SetPriority+0x58>
    NVIC->IP[((uint32_t)IRQn)]               = (uint8_t)((priority << (8U - __NVIC_PRIO_BITS)) & (uint32_t)0xFFUL);
 80008a0:	0109      	lsls	r1, r1, #4
 80008a2:	b2c9      	uxtb	r1, r1
 80008a4:	f100 4060 	add.w	r0, r0, #3758096384	; 0xe0000000
 80008a8:	f500 4061 	add.w	r0, r0, #57600	; 0xe100
 80008ac:	f880 1300 	strb.w	r1, [r0, #768]	; 0x300
  assert_param(IS_NVIC_PREEMPTION_PRIORITY(PreemptPriority));
  
  prioritygroup = NVIC_GetPriorityGrouping();
  
  NVIC_SetPriority(IRQn, NVIC_EncodePriority(prioritygroup, PreemptPriority, SubPriority));
}
 80008b0:	f85d fb04 	ldr.w	pc, [sp], #4
  SubPriorityBits     = ((PriorityGroupTmp + (uint32_t)(__NVIC_PRIO_BITS)) < (uint32_t)7UL) ? (uint32_t)0UL : (uint32_t)((PriorityGroupTmp - 7UL) + (uint32_t)(__NVIC_PRIO_BITS));
 80008b4:	2300      	movs	r3, #0
 80008b6:	e7e5      	b.n	8000884 <HAL_NVIC_SetPriority+0x24>
    SCB->SHP[(((uint32_t)IRQn) & 0xFUL)-4UL] = (uint8_t)((priority << (8U - __NVIC_PRIO_BITS)) & (uint32_t)0xFFUL);
 80008b8:	f000 000f 	and.w	r0, r0, #15
 80008bc:	0109      	lsls	r1, r1, #4
 80008be:	b2c9      	uxtb	r1, r1
 80008c0:	4b02      	ldr	r3, [pc, #8]	; (80008cc <HAL_NVIC_SetPriority+0x6c>)
 80008c2:	5419      	strb	r1, [r3, r0]
 80008c4:	e7f4      	b.n	80008b0 <HAL_NVIC_SetPriority+0x50>
 80008c6:	bf00      	nop
 80008c8:	e000ed00 	and	lr, r0, r0, lsl #26
 80008cc:	e000ed14 	and	lr, r0, r4, lsl sp

080008d0 <HAL_SYSTICK_Config>:
           function <b>SysTick_Config</b> is not included. In this case, the file <b><i>device</i>.h</b>
           must contain a vendor-specific implementation of this function.
 */
__STATIC_INLINE uint32_t SysTick_Config(uint32_t ticks)
{
  if ((ticks - 1UL) > SysTick_LOAD_RELOAD_Msk)
 80008d0:	3801      	subs	r0, #1
 80008d2:	f1b0 7f80 	cmp.w	r0, #16777216	; 0x1000000
 80008d6:	d20b      	bcs.n	80008f0 <HAL_SYSTICK_Config+0x20>
  {
    return (1UL);                                                   /* Reload value impossible */
  }

  SysTick->LOAD  = (uint32_t)(ticks - 1UL);                         /* set reload register */
 80008d8:	f04f 23e0 	mov.w	r3, #3758153728	; 0xe000e000
 80008dc:	6158      	str	r0, [r3, #20]
    SCB->SHP[(((uint32_t)IRQn) & 0xFUL)-4UL] = (uint8_t)((priority << (8U - __NVIC_PRIO_BITS)) & (uint32_t)0xFFUL);
 80008de:	4a05      	ldr	r2, [pc, #20]	; (80008f4 <HAL_SYSTICK_Config+0x24>)
 80008e0:	21f0      	movs	r1, #240	; 0xf0
 80008e2:	f882 1023 	strb.w	r1, [r2, #35]	; 0x23
  NVIC_SetPriority (SysTick_IRQn, (1UL << __NVIC_PRIO_BITS) - 1UL); /* set Priority for Systick Interrupt */
  SysTick->VAL   = 0UL;                                             /* Load the SysTick Counter Value */
 80008e6:	2000      	movs	r0, #0
 80008e8:	6198      	str	r0, [r3, #24]
  SysTick->CTRL  = SysTick_CTRL_CLKSOURCE_Msk |
 80008ea:	2207      	movs	r2, #7
 80008ec:	611a      	str	r2, [r3, #16]
                   SysTick_CTRL_TICKINT_Msk   |
                   SysTick_CTRL_ENABLE_Msk;                         /* Enable SysTick IRQ and SysTick Timer */
  return (0UL);                                                     /* Function successful */
 80008ee:	4770      	bx	lr
    return (1UL);                                                   /* Reload value impossible */
 80008f0:	2001      	movs	r0, #1
  *                  - 1  Function failed.
  */
uint32_t HAL_SYSTICK_Config(uint32_t TicksNumb)
{
   return SysTick_Config(TicksNumb);
}
 80008f2:	4770      	bx	lr
 80008f4:	e000ed00 	and	lr, r0, r0, lsl #26

080008f8 <HAL_InitTick>:
  *       implementation  in user file.
  * @param TickPriority Tick interrupt priority.
  * @retval HAL status
  */
__weak HAL_StatusTypeDef HAL_InitTick(uint32_t TickPriority)
{
 80008f8:	b510      	push	{r4, lr}
 80008fa:	4604      	mov	r4, r0
  /* Configure the SysTick to have interrupt in 1ms time basis*/
  if (HAL_SYSTICK_Config(SystemCoreClock / (1000U / uwTickFreq)) > 0U)
 80008fc:	4b0e      	ldr	r3, [pc, #56]	; (8000938 <HAL_InitTick+0x40>)
 80008fe:	7818      	ldrb	r0, [r3, #0]
 8000900:	f44f 737a 	mov.w	r3, #1000	; 0x3e8
 8000904:	fbb3 f3f0 	udiv	r3, r3, r0
 8000908:	4a0c      	ldr	r2, [pc, #48]	; (800093c <HAL_InitTick+0x44>)
 800090a:	6810      	ldr	r0, [r2, #0]
 800090c:	fbb0 f0f3 	udiv	r0, r0, r3
 8000910:	f7ff ffde 	bl	80008d0 <HAL_SYSTICK_Config>
 8000914:	b968      	cbnz	r0, 8000932 <HAL_InitTick+0x3a>
  {
    return HAL_ERROR;
  }

  /* Configure the SysTick IRQ priority */
  if (TickPriority < (1UL << __NVIC_PRIO_BITS))
 8000916:	2c0f      	cmp	r4, #15
 8000918:	d901      	bls.n	800091e <HAL_InitTick+0x26>
    HAL_NVIC_SetPriority(SysTick_IRQn, TickPriority, 0U);
    uwTickPrio = TickPriority;
  }
  else
  {
    return HAL_ERROR;
 800091a:	2001      	movs	r0, #1
 800091c:	e00a      	b.n	8000934 <HAL_InitTick+0x3c>
    HAL_NVIC_SetPriority(SysTick_IRQn, TickPriority, 0U);
 800091e:	2200      	movs	r2, #0
 8000920:	4621      	mov	r1, r4
 8000922:	f04f 30ff 	mov.w	r0, #4294967295	; 0xffffffff
 8000926:	f7ff ff9b 	bl	8000860 <HAL_NVIC_SetPriority>
    uwTickPrio = TickPriority;
 800092a:	4b05      	ldr	r3, [pc, #20]	; (8000940 <HAL_InitTick+0x48>)
 800092c:	601c      	str	r4, [r3, #0]
  }

  /* Return function status */
  return HAL_OK;
 800092e:	2000      	movs	r0, #0
 8000930:	e000      	b.n	8000934 <HAL_InitTick+0x3c>
    return HAL_ERROR;
 8000932:	2001      	movs	r0, #1
}
 8000934:	bd10      	pop	{r4, pc}
 8000936:	bf00      	nop
 8000938:	20000000 	andcs	r0, r0, r0
 800093c:	20000008 	andcs	r0, r0, r8
 8000940:	20000004 	andcs	r0, r0, r4

08000944 <HAL_IncTick>:
  *      implementations in user file.
  * @retval None
  */
__weak void HAL_IncTick(void)
{
  uwTick += uwTickFreq;
 8000944:	4b03      	ldr	r3, [pc, #12]	; (8000954 <HAL_IncTick+0x10>)
 8000946:	781b      	ldrb	r3, [r3, #0]
 8000948:	4a03      	ldr	r2, [pc, #12]	; (8000958 <HAL_IncTick+0x14>)
 800094a:	6811      	ldr	r1, [r2, #0]
 800094c:	440b      	add	r3, r1
 800094e:	6013      	str	r3, [r2, #0]
}
 8000950:	4770      	bx	lr
 8000952:	bf00      	nop
 8000954:	20000000 	andcs	r0, r0, r0
 8000958:	20000458 	andcs	r0, r0, r8, asr r4

0800095c <HAL_GetTick>:
  *       implementations in user file.
  * @retval tick value
  */
__weak uint32_t HAL_GetTick(void)
{
  return uwTick;
 800095c:	4b01      	ldr	r3, [pc, #4]	; (8000964 <HAL_GetTick+0x8>)
 800095e:	6818      	ldr	r0, [r3, #0]
}
 8000960:	4770      	bx	lr
 8000962:	bf00      	nop
 8000964:	20000458 	andcs	r0, r0, r8, asr r4

08000968 <HAL_Delay>:
  *       implementations in user file.
  * @param Delay specifies the delay time length, in milliseconds.
  * @retval None
  */
__weak void HAL_Delay(uint32_t Delay)
{
 8000968:	b538      	push	{r3, r4, r5, lr}
 800096a:	4604      	mov	r4, r0
  uint32_t tickstart = HAL_GetTick();
 800096c:	f7ff fff6 	bl	800095c <HAL_GetTick>
 8000970:	4605      	mov	r5, r0
  uint32_t wait = Delay;

  /* Add a freq to guarantee minimum wait */
  if (wait < HAL_MAX_DELAY)
 8000972:	f1b4 3fff 	cmp.w	r4, #4294967295	; 0xffffffff
 8000976:	d002      	beq.n	800097e <HAL_Delay+0x16>
  {
    wait += (uint32_t)(uwTickFreq);
 8000978:	4b04      	ldr	r3, [pc, #16]	; (800098c <HAL_Delay+0x24>)
 800097a:	781b      	ldrb	r3, [r3, #0]
 800097c:	441c      	add	r4, r3
  }

  while((HAL_GetTick() - tickstart) < wait)
 800097e:	f7ff ffed 	bl	800095c <HAL_GetTick>
 8000982:	1b40      	subs	r0, r0, r5
 8000984:	42a0      	cmp	r0, r4
 8000986:	d3fa      	bcc.n	800097e <HAL_Delay+0x16>
  {
  }
}
 8000988:	bd38      	pop	{r3, r4, r5, pc}
 800098a:	bf00      	nop
 800098c:	20000000 	andcs	r0, r0, r0

08000990 <Reset_Handler>:
{
 8000990:	b508      	push	{r3, lr}
    for (uint32_t* bss_ptr = &_sbss; bss_ptr < &_ebss;)
 8000992:	4b0f      	ldr	r3, [pc, #60]	; (80009d0 <Reset_Handler+0x40>)
 8000994:	4a0f      	ldr	r2, [pc, #60]	; (80009d4 <Reset_Handler+0x44>)
 8000996:	4293      	cmp	r3, r2
 8000998:	d203      	bcs.n	80009a2 <Reset_Handler+0x12>
        *bss_ptr++ = 0;
 800099a:	2200      	movs	r2, #0
 800099c:	f843 2b04 	str.w	r2, [r3], #4
    for (uint32_t* bss_ptr = &_sbss; bss_ptr < &_ebss;)
 80009a0:	e7f8      	b.n	8000994 <Reset_Handler+0x4>
    if (init_values_ptr != data_ptr)
 80009a2:	4a0d      	ldr	r2, [pc, #52]	; (80009d8 <Reset_Handler+0x48>)
 80009a4:	4b0d      	ldr	r3, [pc, #52]	; (80009dc <Reset_Handler+0x4c>)
 80009a6:	429a      	cmp	r2, r3
 80009a8:	d104      	bne.n	80009b4 <Reset_Handler+0x24>
 80009aa:	e006      	b.n	80009ba <Reset_Handler+0x2a>
            *data_ptr++ = *init_values_ptr++;
 80009ac:	f852 1b04 	ldr.w	r1, [r2], #4
 80009b0:	f843 1b04 	str.w	r1, [r3], #4
        for (; data_ptr < &_edata;)
 80009b4:	490a      	ldr	r1, [pc, #40]	; (80009e0 <Reset_Handler+0x50>)
 80009b6:	428b      	cmp	r3, r1
 80009b8:	d3f8      	bcc.n	80009ac <Reset_Handler+0x1c>
    *CPACR = (3 << 20) | (3 << 22);
 80009ba:	f04f 23e0 	mov.w	r3, #3758153728	; 0xe000e000
 80009be:	f44f 0270 	mov.w	r2, #15728640	; 0xf00000
 80009c2:	f8c3 2d88 	str.w	r2, [r3, #3464]	; 0xd88
    __libc_init_array();
 80009c6:	f000 f999 	bl	8000cfc <__libc_init_array>
    main();
 80009ca:	f000 f94d 	bl	8000c68 <main>
    while (1);
 80009ce:	e7fe      	b.n	80009ce <Reset_Handler+0x3e>
 80009d0:	2000043c 	andcs	r0, r0, ip, lsr r4
 80009d4:	20000464 	andcs	r0, r0, r4, ror #8
 80009d8:	08002404 	stmdaeq	r0, {r2, sl, sp}
 80009dc:	20000000 	andcs	r0, r0, r0
 80009e0:	2000043c 	andcs	r0, r0, ip, lsr r4

080009e4 <Default_Handler>:
    while (1);
 80009e4:	e7fe      	b.n	80009e4 <Default_Handler>

080009e6 <WWDG_IRQHandler>:
__weak void WWDG_IRQHandler(void)                { Default_Handler(); }   /* Window WatchDog                             */
 80009e6:	b508      	push	{r3, lr}
 80009e8:	f7ff fffc 	bl	80009e4 <Default_Handler>

080009ec <PVD_IRQHandler>:
__weak void PVD_IRQHandler(void)                 { Default_Handler(); }   /* PVD through EXTI Line detection             */
 80009ec:	b508      	push	{r3, lr}
 80009ee:	f7ff fff9 	bl	80009e4 <Default_Handler>

080009f2 <TAMP_STAMP_IRQHandler>:
__weak void TAMP_STAMP_IRQHandler(void)          { Default_Handler(); }   /* Tamper and TimeStamps through the EXTI line */
 80009f2:	b508      	push	{r3, lr}
 80009f4:	f7ff fff6 	bl	80009e4 <Default_Handler>

080009f8 <RTC_WKUP_IRQHandler>:
__weak void RTC_WKUP_IRQHandler(void)            { Default_Handler(); }   /* RTC Wakeup through the EXTI line            */
 80009f8:	b508      	push	{r3, lr}
 80009fa:	f7ff fff3 	bl	80009e4 <Default_Handler>

080009fe <FLASH_IRQHandler>:
__weak void FLASH_IRQHandler(void)               { Default_Handler(); }   /* FLASH                                       */
 80009fe:	b508      	push	{r3, lr}
 8000a00:	f7ff fff0 	bl	80009e4 <Default_Handler>

08000a04 <RCC_IRQHandler>:
__weak void RCC_IRQHandler(void)                 { Default_Handler(); }   /* RCC                                         */
 8000a04:	b508      	push	{r3, lr}
 8000a06:	f7ff ffed 	bl	80009e4 <Default_Handler>

08000a0a <EXTI0_IRQHandler>:
__weak void EXTI0_IRQHandler(void)               { Default_Handler(); }   /* EXTI Line0                                  */
 8000a0a:	b508      	push	{r3, lr}
 8000a0c:	f7ff ffea 	bl	80009e4 <Default_Handler>

08000a10 <EXTI1_IRQHandler>:
__weak void EXTI1_IRQHandler(void)               { Default_Handler(); }   /* EXTI Line1                                  */
 8000a10:	b508      	push	{r3, lr}
 8000a12:	f7ff ffe7 	bl	80009e4 <Default_Handler>

08000a16 <EXTI2_IRQHandler>:
__weak void EXTI2_IRQHandler(void)               { Default_Handler(); }   /* EXTI Line2                                  */
 8000a16:	b508      	push	{r3, lr}
 8000a18:	f7ff ffe4 	bl	80009e4 <Default_Handler>

08000a1c <EXTI3_IRQHandler>:
__weak void EXTI3_IRQHandler(void)               { Default_Handler(); }   /* EXTI Line3                                  */
 8000a1c:	b508      	push	{r3, lr}
 8000a1e:	f7ff ffe1 	bl	80009e4 <Default_Handler>

08000a22 <EXTI4_IRQHandler>:
__weak void EXTI4_IRQHandler(void)               { Default_Handler(); }   /* EXTI Line4                                  */
 8000a22:	b508      	push	{r3, lr}
 8000a24:	f7ff ffde 	bl	80009e4 <Default_Handler>

08000a28 <DMA1_Stream0_IRQHandler>:
__weak void DMA1_Stream0_IRQHandler(void)        { Default_Handler(); }   /* DMA1 Stream 0                               */
 8000a28:	b508      	push	{r3, lr}
 8000a2a:	f7ff ffdb 	bl	80009e4 <Default_Handler>

08000a2e <DMA1_Stream1_IRQHandler>:
__weak void DMA1_Stream1_IRQHandler(void)        { Default_Handler(); }   /* DMA1 Stream 1                               */
 8000a2e:	b508      	push	{r3, lr}
 8000a30:	f7ff ffd8 	bl	80009e4 <Default_Handler>

08000a34 <DMA1_Stream2_IRQHandler>:
__weak void DMA1_Stream2_IRQHandler(void)        { Default_Handler(); }   /* DMA1 Stream 2                               */
 8000a34:	b508      	push	{r3, lr}
 8000a36:	f7ff ffd5 	bl	80009e4 <Default_Handler>

08000a3a <DMA1_Stream3_IRQHandler>:
__weak void DMA1_Stream3_IRQHandler(void)        { Default_Handler(); }   /* DMA1 Stream 3                               */
 8000a3a:	b508      	push	{r3, lr}
 8000a3c:	f7ff ffd2 	bl	80009e4 <Default_Handler>

08000a40 <DMA1_Stream4_IRQHandler>:
__weak void DMA1_Stream4_IRQHandler(void)        { Default_Handler(); }   /* DMA1 Stream 4                               */
 8000a40:	b508      	push	{r3, lr}
 8000a42:	f7ff ffcf 	bl	80009e4 <Default_Handler>

08000a46 <DMA1_Stream5_IRQHandler>:
__weak void DMA1_Stream5_IRQHandler(void)        { Default_Handler(); }   /* DMA1 Stream 5                               */
 8000a46:	b508      	push	{r3, lr}
 8000a48:	f7ff ffcc 	bl	80009e4 <Default_Handler>

08000a4c <DMA1_Stream6_IRQHandler>:
__weak void DMA1_Stream6_IRQHandler(void)        { Default_Handler(); }   /* DMA1 Stream 6                               */
 8000a4c:	b508      	push	{r3, lr}
 8000a4e:	f7ff ffc9 	bl	80009e4 <Default_Handler>

08000a52 <ADC_IRQHandler>:
__weak void ADC_IRQHandler(void)                 { Default_Handler(); }   /* ADC1, ADC2 and ADC3s                        */
 8000a52:	b508      	push	{r3, lr}
 8000a54:	f7ff ffc6 	bl	80009e4 <Default_Handler>

08000a58 <CAN1_TX_IRQHandler>:
__weak void CAN1_TX_IRQHandler(void)             { Default_Handler(); }   /* CAN1 TX                                     */
 8000a58:	b508      	push	{r3, lr}
 8000a5a:	f7ff ffc3 	bl	80009e4 <Default_Handler>

08000a5e <CAN1_RX1_IRQHandler>:
__weak void CAN1_RX1_IRQHandler(void)            { Default_Handler(); }   /* CAN1 RX1                                    */
 8000a5e:	b508      	push	{r3, lr}
 8000a60:	f7ff ffc0 	bl	80009e4 <Default_Handler>

08000a64 <CAN1_SCE_IRQHandler>:
__weak void CAN1_SCE_IRQHandler(void)            { Default_Handler(); }   /* CAN1 SCE                                    */
 8000a64:	b508      	push	{r3, lr}
 8000a66:	f7ff ffbd 	bl	80009e4 <Default_Handler>

08000a6a <CAN1_RX0_IRQHandler>:
__weak void CAN1_RX0_IRQHandler(void)            { Default_Handler(); }   /* CAN1 RX0                                    */
 8000a6a:	b508      	push	{r3, lr}
 8000a6c:	f7ff ffba 	bl	80009e4 <Default_Handler>

08000a70 <EXTI9_5_IRQHandler>:
__weak void EXTI9_5_IRQHandler(void)             { Default_Handler(); }   /* External Line[9:5]s                         */
 8000a70:	b508      	push	{r3, lr}
 8000a72:	f7ff ffb7 	bl	80009e4 <Default_Handler>

08000a76 <TIM1_BRK_TIM9_IRQHandler>:
__weak void TIM1_BRK_TIM9_IRQHandler(void)       { Default_Handler(); }   /* TIM1 Break and TIM9                         */
 8000a76:	b508      	push	{r3, lr}
 8000a78:	f7ff ffb4 	bl	80009e4 <Default_Handler>

08000a7c <TIM1_UP_TIM10_IRQHandler>:
__weak void TIM1_UP_TIM10_IRQHandler(void)       { Default_Handler(); }   /* TIM1 Update and TIM10                       */
 8000a7c:	b508      	push	{r3, lr}
 8000a7e:	f7ff ffb1 	bl	80009e4 <Default_Handler>

08000a82 <TIM1_TRG_COM_TIM11_IRQHandler>:
__weak void TIM1_TRG_COM_TIM11_IRQHandler(void)  { Default_Handler(); }   /* TIM1 Trigger and Commutation and TIM11      */
 8000a82:	b508      	push	{r3, lr}
 8000a84:	f7ff ffae 	bl	80009e4 <Default_Handler>

08000a88 <TIM1_CC_IRQHandler>:
__weak void TIM1_CC_IRQHandler(void)             { Default_Handler(); }   /* TIM1 Capture Compare                        */
 8000a88:	b508      	push	{r3, lr}
 8000a8a:	f7ff ffab 	bl	80009e4 <Default_Handler>

08000a8e <TIM2_IRQHandler>:
__weak void TIM2_IRQHandler(void)                { Default_Handler(); }   /* TIM2                                        */
 8000a8e:	b508      	push	{r3, lr}
 8000a90:	f7ff ffa8 	bl	80009e4 <Default_Handler>

08000a94 <TIM3_IRQHandler>:
__weak void TIM3_IRQHandler(void)                { Default_Handler(); }   /* TIM3                                        */
 8000a94:	b508      	push	{r3, lr}
 8000a96:	f7ff ffa5 	bl	80009e4 <Default_Handler>

08000a9a <TIM4_IRQHandler>:
__weak void TIM4_IRQHandler(void)                { Default_Handler(); }   /* TIM4                                        */
 8000a9a:	b508      	push	{r3, lr}
 8000a9c:	f7ff ffa2 	bl	80009e4 <Default_Handler>

08000aa0 <I2C1_EV_IRQHandler>:
__weak void I2C1_EV_IRQHandler(void)             { Default_Handler(); }   /* I2C1 Event                                  */
 8000aa0:	b508      	push	{r3, lr}
 8000aa2:	f7ff ff9f 	bl	80009e4 <Default_Handler>

08000aa6 <I2C1_ER_IRQHandler>:
__weak void I2C1_ER_IRQHandler(void)             { Default_Handler(); }   /* I2C1 Error                                  */
 8000aa6:	b508      	push	{r3, lr}
 8000aa8:	f7ff ff9c 	bl	80009e4 <Default_Handler>

08000aac <I2C2_EV_IRQHandler>:
__weak void I2C2_EV_IRQHandler(void)             { Default_Handler(); }   /* I2C2 Event                                  */
 8000aac:	b508      	push	{r3, lr}
 8000aae:	f7ff ff99 	bl	80009e4 <Default_Handler>

08000ab2 <I2C2_ER_IRQHandler>:
__weak void I2C2_ER_IRQHandler(void)             { Default_Handler(); }   /* I2C2 Error                                  */
 8000ab2:	b508      	push	{r3, lr}
 8000ab4:	f7ff ff96 	bl	80009e4 <Default_Handler>

08000ab8 <SPI1_IRQHandler>:
__weak void SPI1_IRQHandler(void)                { Default_Handler(); }   /* SPI1                                        */
 8000ab8:	b508      	push	{r3, lr}
 8000aba:	f7ff ff93 	bl	80009e4 <Default_Handler>

08000abe <SPI2_IRQHandler>:
__weak void SPI2_IRQHandler(void)                { Default_Handler(); }   /* SPI2                                        */
 8000abe:	b508      	push	{r3, lr}
 8000ac0:	f7ff ff90 	bl	80009e4 <Default_Handler>

08000ac4 <USART1_IRQHandler>:
__weak void USART1_IRQHandler(void)              { Default_Handler(); }   /* USART1                                      */
 8000ac4:	b508      	push	{r3, lr}
 8000ac6:	f7ff ff8d 	bl	80009e4 <Default_Handler>

08000aca <USART2_IRQHandler>:
__weak void USART2_IRQHandler(void)              { Default_Handler(); }   /* USART2                                      */
 8000aca:	b508      	push	{r3, lr}
 8000acc:	f7ff ff8a 	bl	80009e4 <Default_Handler>

08000ad0 <USART3_IRQHandler>:
__weak void USART3_IRQHandler(void)              { Default_Handler(); }   /* USART3                                      */
 8000ad0:	b508      	push	{r3, lr}
 8000ad2:	f7ff ff87 	bl	80009e4 <Default_Handler>

08000ad6 <EXTI15_10_IRQHandler>:
__weak void EXTI15_10_IRQHandler(void)           { Default_Handler(); }   /* External Line[15:10]s                       */
 8000ad6:	b508      	push	{r3, lr}
 8000ad8:	f7ff ff84 	bl	80009e4 <Default_Handler>

08000adc <RTC_Alarm_IRQHandler>:
__weak void RTC_Alarm_IRQHandler(void)           { Default_Handler(); }   /* RTC Alarm (A and B) through EXTI Line       */
 8000adc:	b508      	push	{r3, lr}
 8000ade:	f7ff ff81 	bl	80009e4 <Default_Handler>

08000ae2 <OTG_FS_WKUP_IRQHandler>:
__weak void OTG_FS_WKUP_IRQHandler(void)         { Default_Handler(); }   /* USB OTG FS Wakeup through EXTI line         */
 8000ae2:	b508      	push	{r3, lr}
 8000ae4:	f7ff ff7e 	bl	80009e4 <Default_Handler>

08000ae8 <TIM8_BRK_TIM12_IRQHandler>:
__weak void TIM8_BRK_TIM12_IRQHandler(void)      { Default_Handler(); }   /* TIM8 Break and TIM12                        */
 8000ae8:	b508      	push	{r3, lr}
 8000aea:	f7ff ff7b 	bl	80009e4 <Default_Handler>

08000aee <TIM8_UP_TIM13_IRQHandler>:
__weak void TIM8_UP_TIM13_IRQHandler(void)       { Default_Handler(); }   /* TIM8 Update and TIM13                       */
 8000aee:	b508      	push	{r3, lr}
 8000af0:	f7ff ff78 	bl	80009e4 <Default_Handler>

08000af4 <TIM8_TRG_COM_TIM14_IRQHandler>:
__weak void TIM8_TRG_COM_TIM14_IRQHandler(void)  { Default_Handler(); }   /* TIM8 Trigger and Commutation and TIM14      */
 8000af4:	b508      	push	{r3, lr}
 8000af6:	f7ff ff75 	bl	80009e4 <Default_Handler>

08000afa <TIM8_CC_IRQHandler>:
__weak void TIM8_CC_IRQHandler(void)             { Default_Handler(); }   /* TIM8 Capture Compare                        */
 8000afa:	b508      	push	{r3, lr}
 8000afc:	f7ff ff72 	bl	80009e4 <Default_Handler>

08000b00 <DMA1_Stream7_IRQHandler>:
__weak void DMA1_Stream7_IRQHandler(void)        { Default_Handler(); }   /* DMA1 Stream7                                */
 8000b00:	b508      	push	{r3, lr}
 8000b02:	f7ff ff6f 	bl	80009e4 <Default_Handler>

08000b06 <SDIO_IRQHandler>:
__weak void SDIO_IRQHandler(void)                { Default_Handler(); }   /* SDIO                                        */
 8000b06:	b508      	push	{r3, lr}
 8000b08:	f7ff ff6c 	bl	80009e4 <Default_Handler>

08000b0c <TIM5_IRQHandler>:
__weak void TIM5_IRQHandler(void)                { Default_Handler(); }   /* TIM5                                        */
 8000b0c:	b508      	push	{r3, lr}
 8000b0e:	f7ff ff69 	bl	80009e4 <Default_Handler>

08000b12 <SPI3_IRQHandler>:
__weak void SPI3_IRQHandler(void)                { Default_Handler(); }   /* SPI3                                        */
 8000b12:	b508      	push	{r3, lr}
 8000b14:	f7ff ff66 	bl	80009e4 <Default_Handler>

08000b18 <TIM6_IRQHandler>:
__weak void TIM6_IRQHandler(void)                { Default_Handler(); }   /* TIM6                                        */
 8000b18:	b508      	push	{r3, lr}
 8000b1a:	f7ff ff63 	bl	80009e4 <Default_Handler>

08000b1e <TIM7_IRQHandler>:
__weak void TIM7_IRQHandler(void)                { Default_Handler(); }   /* TIM7                                        */
 8000b1e:	b508      	push	{r3, lr}
 8000b20:	f7ff ff60 	bl	80009e4 <Default_Handler>

08000b24 <DMA2_Stream0_IRQHandler>:
__weak void DMA2_Stream0_IRQHandler(void)        { Default_Handler(); }   /* DMA2 Stream 0                               */
 8000b24:	b508      	push	{r3, lr}
 8000b26:	f7ff ff5d 	bl	80009e4 <Default_Handler>

08000b2a <DMA2_Stream1_IRQHandler>:
__weak void DMA2_Stream1_IRQHandler(void)        { Default_Handler(); }   /* DMA2 Stream 1                               */
 8000b2a:	b508      	push	{r3, lr}
 8000b2c:	f7ff ff5a 	bl	80009e4 <Default_Handler>

08000b30 <DMA2_Stream2_IRQHandler>:
__weak void DMA2_Stream2_IRQHandler(void)        { Default_Handler(); }   /* DMA2 Stream 2                               */
 8000b30:	b508      	push	{r3, lr}
 8000b32:	f7ff ff57 	bl	80009e4 <Default_Handler>

08000b36 <DMA2_Stream3_IRQHandler>:
__weak void DMA2_Stream3_IRQHandler(void)        { Default_Handler(); }   /* DMA2 Stream 3                               */
 8000b36:	b508      	push	{r3, lr}
 8000b38:	f7ff ff54 	bl	80009e4 <Default_Handler>

08000b3c <DMA2_Stream4_IRQHandler>:
__weak void DMA2_Stream4_IRQHandler(void)        { Default_Handler(); }   /* DMA2 Stream 4                               */
 8000b3c:	b508      	push	{r3, lr}
 8000b3e:	f7ff ff51 	bl	80009e4 <Default_Handler>

08000b42 <DFSDM1_FLT0_IRQHandler>:
__weak void DFSDM1_FLT0_IRQHandler(void)         { Default_Handler(); }   /* DFSDM1 Filter0                              */
 8000b42:	b508      	push	{r3, lr}
 8000b44:	f7ff ff4e 	bl	80009e4 <Default_Handler>

08000b48 <DFSDM1_FLT1_IRQHandler>:
__weak void DFSDM1_FLT1_IRQHandler(void)         { Default_Handler(); }   /* DFSDM1 Filter1                              */
 8000b48:	b508      	push	{r3, lr}
 8000b4a:	f7ff ff4b 	bl	80009e4 <Default_Handler>

08000b4e <CAN2_TX_IRQHandler>:
__weak void CAN2_TX_IRQHandler(void)             { Default_Handler(); }   /* CAN2 TX                                     */
 8000b4e:	b508      	push	{r3, lr}
 8000b50:	f7ff ff48 	bl	80009e4 <Default_Handler>

08000b54 <CAN2_RX0_IRQHandler>:
__weak void CAN2_RX0_IRQHandler(void)            { Default_Handler(); }   /* CAN2 RX0                                    */
 8000b54:	b508      	push	{r3, lr}
 8000b56:	f7ff ff45 	bl	80009e4 <Default_Handler>

08000b5a <CAN2_RX1_IRQHandler>:
__weak void CAN2_RX1_IRQHandler(void)            { Default_Handler(); }   /* CAN2 RX1                                    */
 8000b5a:	b508      	push	{r3, lr}
 8000b5c:	f7ff ff42 	bl	80009e4 <Default_Handler>

08000b60 <CAN2_SCE_IRQHandler>:
__weak void CAN2_SCE_IRQHandler(void)            { Default_Handler(); }   /* CAN2 SCE                                    */
 8000b60:	b508      	push	{r3, lr}
 8000b62:	f7ff ff3f 	bl	80009e4 <Default_Handler>

08000b66 <OTG_FS_IRQHandler>:
__weak void OTG_FS_IRQHandler(void)              { Default_Handler(); }   /* USB OTG FS                                  */
 8000b66:	b508      	push	{r3, lr}
 8000b68:	f7ff ff3c 	bl	80009e4 <Default_Handler>

08000b6c <DMA2_Stream5_IRQHandler>:
__weak void DMA2_Stream5_IRQHandler(void)        { Default_Handler(); }   /* DMA2 Stream 5                               */
 8000b6c:	b508      	push	{r3, lr}
 8000b6e:	f7ff ff39 	bl	80009e4 <Default_Handler>

08000b72 <DMA2_Stream6_IRQHandler>:
__weak void DMA2_Stream6_IRQHandler(void)        { Default_Handler(); }   /* DMA2 Stream 6                               */
 8000b72:	b508      	push	{r3, lr}
 8000b74:	f7ff ff36 	bl	80009e4 <Default_Handler>

08000b78 <DMA2_Stream7_IRQHandler>:
__weak void DMA2_Stream7_IRQHandler(void)        { Default_Handler(); }   /* DMA2 Stream 7                               */
 8000b78:	b508      	push	{r3, lr}
 8000b7a:	f7ff ff33 	bl	80009e4 <Default_Handler>

08000b7e <USART6_IRQHandler>:
__weak void USART6_IRQHandler(void)              { Default_Handler(); }   /* USART6                                      */
 8000b7e:	b508      	push	{r3, lr}
 8000b80:	f7ff ff30 	bl	80009e4 <Default_Handler>

08000b84 <I2C3_EV_IRQHandler>:
__weak void I2C3_EV_IRQHandler(void)             { Default_Handler(); }   /* I2C3 event                                  */
 8000b84:	b508      	push	{r3, lr}
 8000b86:	f7ff ff2d 	bl	80009e4 <Default_Handler>

08000b8a <I2C3_ER_IRQHandler>:
__weak void I2C3_ER_IRQHandler(void)             { Default_Handler(); }   /* I2C3 error                                  */
 8000b8a:	b508      	push	{r3, lr}
 8000b8c:	f7ff ff2a 	bl	80009e4 <Default_Handler>

08000b90 <RNG_IRQHandler>:
__weak void RNG_IRQHandler(void)                 { Default_Handler(); }   /* RNG                                         */
 8000b90:	b508      	push	{r3, lr}
 8000b92:	f7ff ff27 	bl	80009e4 <Default_Handler>

08000b96 <FPU_IRQHandler>:
__weak void FPU_IRQHandler(void)                 { Default_Handler(); }   /* FPU                                         */
 8000b96:	b508      	push	{r3, lr}
 8000b98:	f7ff ff24 	bl	80009e4 <Default_Handler>

08000b9c <SPI4_IRQHandler>:
__weak void SPI4_IRQHandler(void)                { Default_Handler(); }   /* SPI4                                        */
 8000b9c:	b508      	push	{r3, lr}
 8000b9e:	f7ff ff21 	bl	80009e4 <Default_Handler>

08000ba2 <SPI5_IRQHandler>:
__weak void SPI5_IRQHandler(void)                { Default_Handler(); }   /* SPI5                                        */
 8000ba2:	b508      	push	{r3, lr}
 8000ba4:	f7ff ff1e 	bl	80009e4 <Default_Handler>

08000ba8 <QUADSPI_IRQHandler>:
__weak void QUADSPI_IRQHandler(void)             { Default_Handler(); }   /* QuadSPI                                     */
 8000ba8:	b508      	push	{r3, lr}
 8000baa:	f7ff ff1b 	bl	80009e4 <Default_Handler>

08000bae <FMPI2C1_EV_IRQHandler>:
__weak void FMPI2C1_EV_IRQHandler(void)          { Default_Handler(); }   /* FMPI2C1 Event                               */
 8000bae:	b508      	push	{r3, lr}
 8000bb0:	f7ff ff18 	bl	80009e4 <Default_Handler>

08000bb4 <FMPI2C1_ER_IRQHandler>:
__weak void FMPI2C1_ER_IRQHandler(void)          { Default_Handler(); }   /* FMPI2C1 Error                               */
 8000bb4:	b508      	push	{r3, lr}
 8000bb6:	f7ff ff15 	bl	80009e4 <Default_Handler>

08000bba <Error_Handler>:
  \details Disables IRQ interrupts by setting the I-bit in the CPSR.
           Can only be executed in Privileged modes.
 */
__STATIC_FORCEINLINE void __disable_irq(void)
{
  __ASM volatile ("cpsid i" : : : "memory");
 8000bba:	b672      	cpsid	i
void Error_Handler(void)
{
  /* USER CODE BEGIN Error_Handler_Debug */
  /* User can add his own implementation to report the HAL error return state */
  __disable_irq();
  while (1)
 8000bbc:	e7fe      	b.n	8000bbc <Error_Handler+0x2>
	...

08000bc0 <_Z18SystemClock_Configv>:
{
 8000bc0:	b500      	push	{lr}
 8000bc2:	b095      	sub	sp, #84	; 0x54
  RCC_OscInitTypeDef RCC_OscInitStruct = {0};
 8000bc4:	2234      	movs	r2, #52	; 0x34
 8000bc6:	2100      	movs	r1, #0
 8000bc8:	a807      	add	r0, sp, #28
 8000bca:	f000 f8bb 	bl	8000d44 <memset>
  RCC_ClkInitTypeDef RCC_ClkInitStruct = {0};
 8000bce:	2300      	movs	r3, #0
 8000bd0:	9302      	str	r3, [sp, #8]
 8000bd2:	9303      	str	r3, [sp, #12]
 8000bd4:	9304      	str	r3, [sp, #16]
 8000bd6:	9305      	str	r3, [sp, #20]
 8000bd8:	9306      	str	r3, [sp, #24]
  __HAL_RCC_PWR_CLK_ENABLE();
 8000bda:	9300      	str	r3, [sp, #0]
 8000bdc:	4a20      	ldr	r2, [pc, #128]	; (8000c60 <_Z18SystemClock_Configv+0xa0>)
 8000bde:	6c11      	ldr	r1, [r2, #64]	; 0x40
 8000be0:	f041 5180 	orr.w	r1, r1, #268435456	; 0x10000000
 8000be4:	6411      	str	r1, [r2, #64]	; 0x40
 8000be6:	6c12      	ldr	r2, [r2, #64]	; 0x40
 8000be8:	f002 5280 	and.w	r2, r2, #268435456	; 0x10000000
 8000bec:	9200      	str	r2, [sp, #0]
 8000bee:	9a00      	ldr	r2, [sp, #0]
  __HAL_PWR_VOLTAGESCALING_CONFIG(PWR_REGULATOR_VOLTAGE_SCALE1);
 8000bf0:	9301      	str	r3, [sp, #4]
 8000bf2:	4b1c      	ldr	r3, [pc, #112]	; (8000c64 <_Z18SystemClock_Configv+0xa4>)
 8000bf4:	681a      	ldr	r2, [r3, #0]
 8000bf6:	f442 4240 	orr.w	r2, r2, #49152	; 0xc000
 8000bfa:	601a      	str	r2, [r3, #0]
 8000bfc:	681b      	ldr	r3, [r3, #0]
 8000bfe:	f403 4340 	and.w	r3, r3, #49152	; 0xc000
 8000c02:	9301      	str	r3, [sp, #4]
 8000c04:	9b01      	ldr	r3, [sp, #4]
  RCC_OscInitStruct.OscillatorType = RCC_OSCILLATORTYPE_HSE;
 8000c06:	2301      	movs	r3, #1
 8000c08:	9307      	str	r3, [sp, #28]
  RCC_OscInitStruct.HSEState = RCC_HSE_BYPASS;
 8000c0a:	f44f 23a0 	mov.w	r3, #327680	; 0x50000
 8000c0e:	9308      	str	r3, [sp, #32]
  RCC_OscInitStruct.PLL.PLLState = RCC_PLL_ON;
 8000c10:	2302      	movs	r3, #2
 8000c12:	930d      	str	r3, [sp, #52]	; 0x34
  RCC_OscInitStruct.PLL.PLLSource = RCC_PLLSOURCE_HSE;
 8000c14:	f44f 0280 	mov.w	r2, #4194304	; 0x400000
 8000c18:	920e      	str	r2, [sp, #56]	; 0x38
  RCC_OscInitStruct.PLL.PLLM = 8;
 8000c1a:	2208      	movs	r2, #8
 8000c1c:	920f      	str	r2, [sp, #60]	; 0x3c
  RCC_OscInitStruct.PLL.PLLN = 384;
 8000c1e:	f44f 71c0 	mov.w	r1, #384	; 0x180
 8000c22:	9110      	str	r1, [sp, #64]	; 0x40
  RCC_OscInitStruct.PLL.PLLP = RCC_PLLP_DIV4;
 8000c24:	2104      	movs	r1, #4
 8000c26:	9111      	str	r1, [sp, #68]	; 0x44
  RCC_OscInitStruct.PLL.PLLQ = 8;
 8000c28:	9212      	str	r2, [sp, #72]	; 0x48
  RCC_OscInitStruct.PLL.PLLR = 2;
 8000c2a:	9313      	str	r3, [sp, #76]	; 0x4c
  if (HAL_RCC_OscConfig(&RCC_OscInitStruct) != HAL_OK)
 8000c2c:	a807      	add	r0, sp, #28
 8000c2e:	f7ff fc0f 	bl	8000450 <HAL_RCC_OscConfig>
 8000c32:	b988      	cbnz	r0, 8000c58 <_Z18SystemClock_Configv+0x98>
  RCC_ClkInitStruct.ClockType = RCC_CLOCKTYPE_HCLK|RCC_CLOCKTYPE_SYSCLK
 8000c34:	230f      	movs	r3, #15
 8000c36:	9302      	str	r3, [sp, #8]
  RCC_ClkInitStruct.SYSCLKSource = RCC_SYSCLKSOURCE_PLLCLK;
 8000c38:	2302      	movs	r3, #2
 8000c3a:	9303      	str	r3, [sp, #12]
  RCC_ClkInitStruct.AHBCLKDivider = RCC_SYSCLK_DIV1;
 8000c3c:	2300      	movs	r3, #0
 8000c3e:	9304      	str	r3, [sp, #16]
  RCC_ClkInitStruct.APB1CLKDivider = RCC_HCLK_DIV2;
 8000c40:	f44f 5280 	mov.w	r2, #4096	; 0x1000
 8000c44:	9205      	str	r2, [sp, #20]
  RCC_ClkInitStruct.APB2CLKDivider = RCC_HCLK_DIV1;
 8000c46:	9306      	str	r3, [sp, #24]
  if (HAL_RCC_ClockConfig(&RCC_ClkInitStruct, FLASH_LATENCY_3) != HAL_OK)
 8000c48:	2103      	movs	r1, #3
 8000c4a:	a802      	add	r0, sp, #8
 8000c4c:	f7ff fb50 	bl	80002f0 <HAL_RCC_ClockConfig>
 8000c50:	b920      	cbnz	r0, 8000c5c <_Z18SystemClock_Configv+0x9c>
}
 8000c52:	b015      	add	sp, #84	; 0x54
 8000c54:	f85d fb04 	ldr.w	pc, [sp], #4
    Error_Handler();
 8000c58:	f7ff ffaf 	bl	8000bba <Error_Handler>
    Error_Handler();
 8000c5c:	f7ff ffad 	bl	8000bba <Error_Handler>
 8000c60:	40023800 	andmi	r3, r2, r0, lsl #16
 8000c64:	40007000 	andmi	r7, r0, r0

08000c68 <main>:
{
 8000c68:	b508      	push	{r3, lr}
  SystemClock_Config();
 8000c6a:	f7ff ffa9 	bl	8000bc0 <_Z18SystemClock_Configv>
  *RCC_AHB1 |= (1 << 1); // Enable clock to Port B
 8000c6e:	4a1f      	ldr	r2, [pc, #124]	; (8000cec <main+0x84>)
 8000c70:	f8d2 3830 	ldr.w	r3, [r2, #2096]	; 0x830
 8000c74:	f043 0302 	orr.w	r3, r3, #2
 8000c78:	f8c2 3830 	str.w	r3, [r2, #2096]	; 0x830
  *MODERB &= ~((0b11 << 28) | (0b11 << 14) | 0b11); // Clear
 8000c7c:	4b1c      	ldr	r3, [pc, #112]	; (8000cf0 <main+0x88>)
 8000c7e:	f8d3 2400 	ldr.w	r2, [r3, #1024]	; 0x400
 8000c82:	491c      	ldr	r1, [pc, #112]	; (8000cf4 <main+0x8c>)
 8000c84:	400a      	ands	r2, r1
 8000c86:	f8c3 2400 	str.w	r2, [r3, #1024]	; 0x400
  *MODERB |= (0b01 << 28) | (0b01 << 14) | 0b01;  // Set I/O as output
 8000c8a:	f8d3 0400 	ldr.w	r0, [r3, #1024]	; 0x400
 8000c8e:	4a1a      	ldr	r2, [pc, #104]	; (8000cf8 <main+0x90>)
 8000c90:	4302      	orrs	r2, r0
 8000c92:	f8c3 2400 	str.w	r2, [r3, #1024]	; 0x400
  *OTYPERB &= ~((1 << 14) | (1 << 7) | 1);   // Clear -> Pull-Push
 8000c96:	f8d3 2404 	ldr.w	r2, [r3, #1028]	; 0x404
 8000c9a:	f422 4281 	bic.w	r2, r2, #16512	; 0x4080
 8000c9e:	f022 0201 	bic.w	r2, r2, #1
 8000ca2:	f8c3 2404 	str.w	r2, [r3, #1028]	; 0x404
  *OSPEEDRB &= ~((0b11 << 28) | (0b11 << 14) | 0b11); // Clear -> Low speed
 8000ca6:	f8d3 2408 	ldr.w	r2, [r3, #1032]	; 0x408
 8000caa:	400a      	ands	r2, r1
 8000cac:	f8c3 2408 	str.w	r2, [r3, #1032]	; 0x408
  *PUPDRB &= ~((0b11 << 28) | (0b11 << 14) | 0b11); // Clear -> No pull up/down
 8000cb0:	f8d3 240c 	ldr.w	r2, [r3, #1036]	; 0x40c
 8000cb4:	400a      	ands	r2, r1
 8000cb6:	f8c3 240c 	str.w	r2, [r3, #1036]	; 0x40c
  *ODR_B |= (1 << 14) | (1 << 7) | 1;
 8000cba:	4c0d      	ldr	r4, [pc, #52]	; (8000cf0 <main+0x88>)
 8000cbc:	f8d4 3414 	ldr.w	r3, [r4, #1044]	; 0x414
 8000cc0:	f443 4381 	orr.w	r3, r3, #16512	; 0x4080
 8000cc4:	f043 0301 	orr.w	r3, r3, #1
 8000cc8:	f8c4 3414 	str.w	r3, [r4, #1044]	; 0x414
    HAL_Delay(100);
 8000ccc:	2064      	movs	r0, #100	; 0x64
 8000cce:	f7ff fe4b 	bl	8000968 <HAL_Delay>
  *ODR_B &= ~((1 << 14) | (1 << 7) | 1);
 8000cd2:	f8d4 3414 	ldr.w	r3, [r4, #1044]	; 0x414
 8000cd6:	f423 4381 	bic.w	r3, r3, #16512	; 0x4080
 8000cda:	f023 0301 	bic.w	r3, r3, #1
 8000cde:	f8c4 3414 	str.w	r3, [r4, #1044]	; 0x414
    HAL_Delay(100);
 8000ce2:	2064      	movs	r0, #100	; 0x64
 8000ce4:	f7ff fe40 	bl	8000968 <HAL_Delay>
  while (1)
 8000ce8:	e7e7      	b.n	8000cba <main+0x52>
 8000cea:	bf00      	nop
 8000cec:	40023000 	andmi	r3, r2, r0
 8000cf0:	40020000 	andmi	r0, r2, r0
 8000cf4:	cfff3ffc 	svcgt	0x00ff3ffc
 8000cf8:	10004001 	andne	r4, r0, r1

08000cfc <__libc_init_array>:
 8000cfc:	b570      	push	{r4, r5, r6, lr}
 8000cfe:	4e0d      	ldr	r6, [pc, #52]	; (8000d34 <__libc_init_array+0x38>)
 8000d00:	4d0d      	ldr	r5, [pc, #52]	; (8000d38 <__libc_init_array+0x3c>)
 8000d02:	1b76      	subs	r6, r6, r5
 8000d04:	10b6      	asrs	r6, r6, #2
 8000d06:	d006      	beq.n	8000d16 <__libc_init_array+0x1a>
 8000d08:	2400      	movs	r4, #0
 8000d0a:	f855 3b04 	ldr.w	r3, [r5], #4
 8000d0e:	3401      	adds	r4, #1
 8000d10:	4798      	blx	r3
 8000d12:	42a6      	cmp	r6, r4
 8000d14:	d1f9      	bne.n	8000d0a <__libc_init_array+0xe>
 8000d16:	4e09      	ldr	r6, [pc, #36]	; (8000d3c <__libc_init_array+0x40>)
 8000d18:	4d09      	ldr	r5, [pc, #36]	; (8000d40 <__libc_init_array+0x44>)
 8000d1a:	1b76      	subs	r6, r6, r5
 8000d1c:	f001 faba 	bl	8002294 <_init>
 8000d20:	10b6      	asrs	r6, r6, #2
 8000d22:	d006      	beq.n	8000d32 <__libc_init_array+0x36>
 8000d24:	2400      	movs	r4, #0
 8000d26:	f855 3b04 	ldr.w	r3, [r5], #4
 8000d2a:	3401      	adds	r4, #1
 8000d2c:	4798      	blx	r3
 8000d2e:	42a6      	cmp	r6, r4
 8000d30:	d1f9      	bne.n	8000d26 <__libc_init_array+0x2a>
 8000d32:	bd70      	pop	{r4, r5, r6, pc}
 8000d34:	080023f8 	stmdaeq	r0, {r3, r4, r5, r6, r7, r8, r9, sp}
 8000d38:	080023f8 	stmdaeq	r0, {r3, r4, r5, r6, r7, r8, r9, sp}
 8000d3c:	08002400 	stmdaeq	r0, {sl, sp}
 8000d40:	080023f8 	stmdaeq	r0, {r3, r4, r5, r6, r7, r8, r9, sp}

08000d44 <memset>:
 8000d44:	0783      	lsls	r3, r0, #30
 8000d46:	b530      	push	{r4, r5, lr}
 8000d48:	d048      	beq.n	8000ddc <memset+0x98>
 8000d4a:	1e54      	subs	r4, r2, #1
 8000d4c:	2a00      	cmp	r2, #0
 8000d4e:	d03f      	beq.n	8000dd0 <memset+0x8c>
 8000d50:	b2ca      	uxtb	r2, r1
 8000d52:	4603      	mov	r3, r0
 8000d54:	e001      	b.n	8000d5a <memset+0x16>
 8000d56:	3c01      	subs	r4, #1
 8000d58:	d33a      	bcc.n	8000dd0 <memset+0x8c>
 8000d5a:	f803 2b01 	strb.w	r2, [r3], #1
 8000d5e:	079d      	lsls	r5, r3, #30
 8000d60:	d1f9      	bne.n	8000d56 <memset+0x12>
 8000d62:	2c03      	cmp	r4, #3
 8000d64:	d92d      	bls.n	8000dc2 <memset+0x7e>
 8000d66:	b2cd      	uxtb	r5, r1
 8000d68:	ea45 2505 	orr.w	r5, r5, r5, lsl #8
 8000d6c:	2c0f      	cmp	r4, #15
 8000d6e:	ea45 4505 	orr.w	r5, r5, r5, lsl #16
 8000d72:	d936      	bls.n	8000de2 <memset+0x9e>
 8000d74:	f1a4 0210 	sub.w	r2, r4, #16
 8000d78:	f022 0c0f 	bic.w	ip, r2, #15
 8000d7c:	f103 0e20 	add.w	lr, r3, #32
 8000d80:	44e6      	add	lr, ip
 8000d82:	ea4f 1c12 	mov.w	ip, r2, lsr #4
 8000d86:	f103 0210 	add.w	r2, r3, #16
 8000d8a:	e942 5504 	strd	r5, r5, [r2, #-16]
 8000d8e:	e942 5502 	strd	r5, r5, [r2, #-8]
 8000d92:	3210      	adds	r2, #16
 8000d94:	4572      	cmp	r2, lr
 8000d96:	d1f8      	bne.n	8000d8a <memset+0x46>
 8000d98:	f10c 0201 	add.w	r2, ip, #1
 8000d9c:	f014 0f0c 	tst.w	r4, #12
 8000da0:	eb03 1202 	add.w	r2, r3, r2, lsl #4
 8000da4:	f004 0c0f 	and.w	ip, r4, #15
 8000da8:	d013      	beq.n	8000dd2 <memset+0x8e>
 8000daa:	f1ac 0304 	sub.w	r3, ip, #4
 8000dae:	f023 0303 	bic.w	r3, r3, #3
 8000db2:	3304      	adds	r3, #4
 8000db4:	4413      	add	r3, r2
 8000db6:	f842 5b04 	str.w	r5, [r2], #4
 8000dba:	4293      	cmp	r3, r2
 8000dbc:	d1fb      	bne.n	8000db6 <memset+0x72>
 8000dbe:	f00c 0403 	and.w	r4, ip, #3
 8000dc2:	b12c      	cbz	r4, 8000dd0 <memset+0x8c>
 8000dc4:	b2ca      	uxtb	r2, r1
 8000dc6:	441c      	add	r4, r3
 8000dc8:	f803 2b01 	strb.w	r2, [r3], #1
 8000dcc:	429c      	cmp	r4, r3
 8000dce:	d1fb      	bne.n	8000dc8 <memset+0x84>
 8000dd0:	bd30      	pop	{r4, r5, pc}
 8000dd2:	4664      	mov	r4, ip
 8000dd4:	4613      	mov	r3, r2
 8000dd6:	2c00      	cmp	r4, #0
 8000dd8:	d1f4      	bne.n	8000dc4 <memset+0x80>
 8000dda:	e7f9      	b.n	8000dd0 <memset+0x8c>
 8000ddc:	4603      	mov	r3, r0
 8000dde:	4614      	mov	r4, r2
 8000de0:	e7bf      	b.n	8000d62 <memset+0x1e>
 8000de2:	461a      	mov	r2, r3
 8000de4:	46a4      	mov	ip, r4
 8000de6:	e7e0      	b.n	8000daa <memset+0x66>

08000de8 <register_fini>:
 8000de8:	4b02      	ldr	r3, [pc, #8]	; (8000df4 <register_fini+0xc>)
 8000dea:	b113      	cbz	r3, 8000df2 <register_fini+0xa>
 8000dec:	4802      	ldr	r0, [pc, #8]	; (8000df8 <register_fini+0x10>)
 8000dee:	f000 b805 	b.w	8000dfc <atexit>
 8000df2:	4770      	bx	lr
 8000df4:	00000000 	andeq	r0, r0, r0
 8000df8:	08000e09 	stmdaeq	r0, {r0, r3, r9, sl, fp}

08000dfc <atexit>:
 8000dfc:	2300      	movs	r3, #0
 8000dfe:	4601      	mov	r1, r0
 8000e00:	461a      	mov	r2, r3
 8000e02:	4618      	mov	r0, r3
 8000e04:	f000 b81a 	b.w	8000e3c <__register_exitproc>

08000e08 <__libc_fini_array>:
 8000e08:	b538      	push	{r3, r4, r5, lr}
 8000e0a:	4b08      	ldr	r3, [pc, #32]	; (8000e2c <__libc_fini_array+0x24>)
 8000e0c:	4d08      	ldr	r5, [pc, #32]	; (8000e30 <__libc_fini_array+0x28>)
 8000e0e:	1b5b      	subs	r3, r3, r5
 8000e10:	109c      	asrs	r4, r3, #2
 8000e12:	d007      	beq.n	8000e24 <__libc_fini_array+0x1c>
 8000e14:	3b04      	subs	r3, #4
 8000e16:	441d      	add	r5, r3
 8000e18:	3c01      	subs	r4, #1
 8000e1a:	f855 3904 	ldr.w	r3, [r5], #-4
 8000e1e:	4798      	blx	r3
 8000e20:	2c00      	cmp	r4, #0
 8000e22:	d1f9      	bne.n	8000e18 <__libc_fini_array+0x10>
 8000e24:	e8bd 4038 	ldmia.w	sp!, {r3, r4, r5, lr}
 8000e28:	f001 ba3a 	b.w	80022a0 <_fini>
 8000e2c:	08002404 	stmdaeq	r0, {r2, sl, sp}
 8000e30:	08002400 	stmdaeq	r0, {sl, sp}

08000e34 <__retarget_lock_acquire_recursive>:
 8000e34:	4770      	bx	lr
 8000e36:	bf00      	nop

08000e38 <__retarget_lock_release_recursive>:
 8000e38:	4770      	bx	lr
 8000e3a:	bf00      	nop

08000e3c <__register_exitproc>:
 8000e3c:	e92d 47f0 	stmdb	sp!, {r4, r5, r6, r7, r8, r9, sl, lr}
 8000e40:	f8df a080 	ldr.w	sl, [pc, #128]	; 8000ec4 <__register_exitproc+0x88>
 8000e44:	4606      	mov	r6, r0
 8000e46:	f8da 0000 	ldr.w	r0, [sl]
 8000e4a:	4698      	mov	r8, r3
 8000e4c:	460f      	mov	r7, r1
 8000e4e:	4691      	mov	r9, r2
 8000e50:	f7ff fff0 	bl	8000e34 <__retarget_lock_acquire_recursive>
 8000e54:	4b1a      	ldr	r3, [pc, #104]	; (8000ec0 <__register_exitproc+0x84>)
 8000e56:	681b      	ldr	r3, [r3, #0]
 8000e58:	f8d3 4148 	ldr.w	r4, [r3, #328]	; 0x148
 8000e5c:	b324      	cbz	r4, 8000ea8 <__register_exitproc+0x6c>
 8000e5e:	6865      	ldr	r5, [r4, #4]
 8000e60:	2d1f      	cmp	r5, #31
 8000e62:	dc26      	bgt.n	8000eb2 <__register_exitproc+0x76>
 8000e64:	b95e      	cbnz	r6, 8000e7e <__register_exitproc+0x42>
 8000e66:	1c6b      	adds	r3, r5, #1
 8000e68:	3502      	adds	r5, #2
 8000e6a:	f8da 0000 	ldr.w	r0, [sl]
 8000e6e:	6063      	str	r3, [r4, #4]
 8000e70:	f844 7025 	str.w	r7, [r4, r5, lsl #2]
 8000e74:	f7ff ffe0 	bl	8000e38 <__retarget_lock_release_recursive>
 8000e78:	2000      	movs	r0, #0
 8000e7a:	e8bd 87f0 	ldmia.w	sp!, {r4, r5, r6, r7, r8, r9, sl, pc}
 8000e7e:	eb04 0185 	add.w	r1, r4, r5, lsl #2
 8000e82:	2301      	movs	r3, #1
 8000e84:	f8c1 9088 	str.w	r9, [r1, #136]	; 0x88
 8000e88:	f8d4 2188 	ldr.w	r2, [r4, #392]	; 0x188
 8000e8c:	40ab      	lsls	r3, r5
 8000e8e:	431a      	orrs	r2, r3
 8000e90:	2e02      	cmp	r6, #2
 8000e92:	f8c4 2188 	str.w	r2, [r4, #392]	; 0x188
 8000e96:	f8c1 8108 	str.w	r8, [r1, #264]	; 0x108
 8000e9a:	d1e4      	bne.n	8000e66 <__register_exitproc+0x2a>
 8000e9c:	f8d4 218c 	ldr.w	r2, [r4, #396]	; 0x18c
 8000ea0:	4313      	orrs	r3, r2
 8000ea2:	f8c4 318c 	str.w	r3, [r4, #396]	; 0x18c
 8000ea6:	e7de      	b.n	8000e66 <__register_exitproc+0x2a>
 8000ea8:	f503 74a6 	add.w	r4, r3, #332	; 0x14c
 8000eac:	f8c3 4148 	str.w	r4, [r3, #328]	; 0x148
 8000eb0:	e7d5      	b.n	8000e5e <__register_exitproc+0x22>
 8000eb2:	f8da 0000 	ldr.w	r0, [sl]
 8000eb6:	f7ff ffbf 	bl	8000e38 <__retarget_lock_release_recursive>
 8000eba:	f04f 30ff 	mov.w	r0, #4294967295	; 0xffffffff
 8000ebe:	e7dc      	b.n	8000e7a <__register_exitproc+0x3e>
 8000ec0:	080022bc 	stmdaeq	r0, {r2, r3, r4, r5, r7, r9, sp}
 8000ec4:	20000438 	andcs	r0, r0, r8, lsr r4

08000ec8 <__aeabi_uldivmod>:
 8000ec8:	b953      	cbnz	r3, 8000ee0 <__aeabi_uldivmod+0x18>
 8000eca:	b94a      	cbnz	r2, 8000ee0 <__aeabi_uldivmod+0x18>
 8000ecc:	2900      	cmp	r1, #0
 8000ece:	bf08      	it	eq
 8000ed0:	2800      	cmpeq	r0, #0
 8000ed2:	bf1c      	itt	ne
 8000ed4:	f04f 31ff 	movne.w	r1, #4294967295	; 0xffffffff
 8000ed8:	f04f 30ff 	movne.w	r0, #4294967295	; 0xffffffff
 8000edc:	f001 b8de 	b.w	800209c <__aeabi_idiv0>
 8000ee0:	f1ad 0c08 	sub.w	ip, sp, #8
 8000ee4:	e96d ce04 	strd	ip, lr, [sp, #-16]!
 8000ee8:	f000 f806 	bl	8000ef8 <__udivmoddi4>
 8000eec:	f8dd e004 	ldr.w	lr, [sp, #4]
 8000ef0:	e9dd 2302 	ldrd	r2, r3, [sp, #8]
 8000ef4:	b004      	add	sp, #16
 8000ef6:	4770      	bx	lr

08000ef8 <__udivmoddi4>:
 8000ef8:	e92d 47f0 	stmdb	sp!, {r4, r5, r6, r7, r8, r9, sl, lr}
 8000efc:	9d08      	ldr	r5, [sp, #32]
 8000efe:	4604      	mov	r4, r0
 8000f00:	468e      	mov	lr, r1
 8000f02:	2b00      	cmp	r3, #0
 8000f04:	d14d      	bne.n	8000fa2 <__udivmoddi4+0xaa>
 8000f06:	428a      	cmp	r2, r1
 8000f08:	4694      	mov	ip, r2
 8000f0a:	d969      	bls.n	8000fe0 <__udivmoddi4+0xe8>
 8000f0c:	fab2 f282 	clz	r2, r2
 8000f10:	b152      	cbz	r2, 8000f28 <__udivmoddi4+0x30>
 8000f12:	fa01 f302 	lsl.w	r3, r1, r2
 8000f16:	f1c2 0120 	rsb	r1, r2, #32
 8000f1a:	fa20 f101 	lsr.w	r1, r0, r1
 8000f1e:	fa0c fc02 	lsl.w	ip, ip, r2
 8000f22:	ea41 0e03 	orr.w	lr, r1, r3
 8000f26:	4094      	lsls	r4, r2
 8000f28:	ea4f 481c 	mov.w	r8, ip, lsr #16
 8000f2c:	0c21      	lsrs	r1, r4, #16
 8000f2e:	fbbe f6f8 	udiv	r6, lr, r8
 8000f32:	fa1f f78c 	uxth.w	r7, ip
 8000f36:	fb08 e316 	mls	r3, r8, r6, lr
 8000f3a:	ea41 4303 	orr.w	r3, r1, r3, lsl #16
 8000f3e:	fb06 f107 	mul.w	r1, r6, r7
 8000f42:	4299      	cmp	r1, r3
 8000f44:	d90a      	bls.n	8000f5c <__udivmoddi4+0x64>
 8000f46:	eb1c 0303 	adds.w	r3, ip, r3
 8000f4a:	f106 30ff 	add.w	r0, r6, #4294967295	; 0xffffffff
 8000f4e:	f080 811f 	bcs.w	8001190 <__udivmoddi4+0x298>
 8000f52:	4299      	cmp	r1, r3
 8000f54:	f240 811c 	bls.w	8001190 <__udivmoddi4+0x298>
 8000f58:	3e02      	subs	r6, #2
 8000f5a:	4463      	add	r3, ip
 8000f5c:	1a5b      	subs	r3, r3, r1
 8000f5e:	b2a4      	uxth	r4, r4
 8000f60:	fbb3 f0f8 	udiv	r0, r3, r8
 8000f64:	fb08 3310 	mls	r3, r8, r0, r3
 8000f68:	ea44 4403 	orr.w	r4, r4, r3, lsl #16
 8000f6c:	fb00 f707 	mul.w	r7, r0, r7
 8000f70:	42a7      	cmp	r7, r4
 8000f72:	d90a      	bls.n	8000f8a <__udivmoddi4+0x92>
 8000f74:	eb1c 0404 	adds.w	r4, ip, r4
 8000f78:	f100 33ff 	add.w	r3, r0, #4294967295	; 0xffffffff
 8000f7c:	f080 810a 	bcs.w	8001194 <__udivmoddi4+0x29c>
 8000f80:	42a7      	cmp	r7, r4
 8000f82:	f240 8107 	bls.w	8001194 <__udivmoddi4+0x29c>
 8000f86:	4464      	add	r4, ip
 8000f88:	3802      	subs	r0, #2
 8000f8a:	ea40 4006 	orr.w	r0, r0, r6, lsl #16
 8000f8e:	1be4      	subs	r4, r4, r7
 8000f90:	2600      	movs	r6, #0
 8000f92:	b11d      	cbz	r5, 8000f9c <__udivmoddi4+0xa4>
 8000f94:	40d4      	lsrs	r4, r2
 8000f96:	2300      	movs	r3, #0
 8000f98:	e9c5 4300 	strd	r4, r3, [r5]
 8000f9c:	4631      	mov	r1, r6
 8000f9e:	e8bd 87f0 	ldmia.w	sp!, {r4, r5, r6, r7, r8, r9, sl, pc}
 8000fa2:	428b      	cmp	r3, r1
 8000fa4:	d909      	bls.n	8000fba <__udivmoddi4+0xc2>
 8000fa6:	2d00      	cmp	r5, #0
 8000fa8:	f000 80ef 	beq.w	800118a <__udivmoddi4+0x292>
 8000fac:	2600      	movs	r6, #0
 8000fae:	e9c5 0100 	strd	r0, r1, [r5]
 8000fb2:	4630      	mov	r0, r6
 8000fb4:	4631      	mov	r1, r6
 8000fb6:	e8bd 87f0 	ldmia.w	sp!, {r4, r5, r6, r7, r8, r9, sl, pc}
 8000fba:	fab3 f683 	clz	r6, r3
 8000fbe:	2e00      	cmp	r6, #0
 8000fc0:	d14a      	bne.n	8001058 <__udivmoddi4+0x160>
 8000fc2:	428b      	cmp	r3, r1
 8000fc4:	d302      	bcc.n	8000fcc <__udivmoddi4+0xd4>
 8000fc6:	4282      	cmp	r2, r0
 8000fc8:	f200 80f9 	bhi.w	80011be <__udivmoddi4+0x2c6>
 8000fcc:	1a84      	subs	r4, r0, r2
 8000fce:	eb61 0303 	sbc.w	r3, r1, r3
 8000fd2:	2001      	movs	r0, #1
 8000fd4:	469e      	mov	lr, r3
 8000fd6:	2d00      	cmp	r5, #0
 8000fd8:	d0e0      	beq.n	8000f9c <__udivmoddi4+0xa4>
 8000fda:	e9c5 4e00 	strd	r4, lr, [r5]
 8000fde:	e7dd      	b.n	8000f9c <__udivmoddi4+0xa4>
 8000fe0:	b902      	cbnz	r2, 8000fe4 <__udivmoddi4+0xec>
 8000fe2:	deff      	udf	#255	; 0xff
 8000fe4:	fab2 f282 	clz	r2, r2
 8000fe8:	2a00      	cmp	r2, #0
 8000fea:	f040 8092 	bne.w	8001112 <__udivmoddi4+0x21a>
 8000fee:	eba1 010c 	sub.w	r1, r1, ip
 8000ff2:	ea4f 471c 	mov.w	r7, ip, lsr #16
 8000ff6:	fa1f fe8c 	uxth.w	lr, ip
 8000ffa:	2601      	movs	r6, #1
 8000ffc:	0c20      	lsrs	r0, r4, #16
 8000ffe:	fbb1 f3f7 	udiv	r3, r1, r7
 8001002:	fb07 1113 	mls	r1, r7, r3, r1
 8001006:	ea40 4101 	orr.w	r1, r0, r1, lsl #16
 800100a:	fb0e f003 	mul.w	r0, lr, r3
 800100e:	4288      	cmp	r0, r1
 8001010:	d908      	bls.n	8001024 <__udivmoddi4+0x12c>
 8001012:	eb1c 0101 	adds.w	r1, ip, r1
 8001016:	f103 38ff 	add.w	r8, r3, #4294967295	; 0xffffffff
 800101a:	d202      	bcs.n	8001022 <__udivmoddi4+0x12a>
 800101c:	4288      	cmp	r0, r1
 800101e:	f200 80cb 	bhi.w	80011b8 <__udivmoddi4+0x2c0>
 8001022:	4643      	mov	r3, r8
 8001024:	1a09      	subs	r1, r1, r0
 8001026:	b2a4      	uxth	r4, r4
 8001028:	fbb1 f0f7 	udiv	r0, r1, r7
 800102c:	fb07 1110 	mls	r1, r7, r0, r1
 8001030:	ea44 4401 	orr.w	r4, r4, r1, lsl #16
 8001034:	fb0e fe00 	mul.w	lr, lr, r0
 8001038:	45a6      	cmp	lr, r4
 800103a:	d908      	bls.n	800104e <__udivmoddi4+0x156>
 800103c:	eb1c 0404 	adds.w	r4, ip, r4
 8001040:	f100 31ff 	add.w	r1, r0, #4294967295	; 0xffffffff
 8001044:	d202      	bcs.n	800104c <__udivmoddi4+0x154>
 8001046:	45a6      	cmp	lr, r4
 8001048:	f200 80bb 	bhi.w	80011c2 <__udivmoddi4+0x2ca>
 800104c:	4608      	mov	r0, r1
 800104e:	eba4 040e 	sub.w	r4, r4, lr
 8001052:	ea40 4003 	orr.w	r0, r0, r3, lsl #16
 8001056:	e79c      	b.n	8000f92 <__udivmoddi4+0x9a>
 8001058:	f1c6 0720 	rsb	r7, r6, #32
 800105c:	40b3      	lsls	r3, r6
 800105e:	fa22 fc07 	lsr.w	ip, r2, r7
 8001062:	ea4c 0c03 	orr.w	ip, ip, r3
 8001066:	fa20 f407 	lsr.w	r4, r0, r7
 800106a:	fa01 f306 	lsl.w	r3, r1, r6
 800106e:	431c      	orrs	r4, r3
 8001070:	40f9      	lsrs	r1, r7
 8001072:	ea4f 491c 	mov.w	r9, ip, lsr #16
 8001076:	fa00 f306 	lsl.w	r3, r0, r6
 800107a:	fbb1 f8f9 	udiv	r8, r1, r9
 800107e:	0c20      	lsrs	r0, r4, #16
 8001080:	fa1f fe8c 	uxth.w	lr, ip
 8001084:	fb09 1118 	mls	r1, r9, r8, r1
 8001088:	ea40 4101 	orr.w	r1, r0, r1, lsl #16
 800108c:	fb08 f00e 	mul.w	r0, r8, lr
 8001090:	4288      	cmp	r0, r1
 8001092:	fa02 f206 	lsl.w	r2, r2, r6
 8001096:	d90b      	bls.n	80010b0 <__udivmoddi4+0x1b8>
 8001098:	eb1c 0101 	adds.w	r1, ip, r1
 800109c:	f108 3aff 	add.w	sl, r8, #4294967295	; 0xffffffff
 80010a0:	f080 8088 	bcs.w	80011b4 <__udivmoddi4+0x2bc>
 80010a4:	4288      	cmp	r0, r1
 80010a6:	f240 8085 	bls.w	80011b4 <__udivmoddi4+0x2bc>
 80010aa:	f1a8 0802 	sub.w	r8, r8, #2
 80010ae:	4461      	add	r1, ip
 80010b0:	1a09      	subs	r1, r1, r0
 80010b2:	b2a4      	uxth	r4, r4
 80010b4:	fbb1 f0f9 	udiv	r0, r1, r9
 80010b8:	fb09 1110 	mls	r1, r9, r0, r1
 80010bc:	ea44 4101 	orr.w	r1, r4, r1, lsl #16
 80010c0:	fb00 fe0e 	mul.w	lr, r0, lr
 80010c4:	458e      	cmp	lr, r1
 80010c6:	d908      	bls.n	80010da <__udivmoddi4+0x1e2>
 80010c8:	eb1c 0101 	adds.w	r1, ip, r1
 80010cc:	f100 34ff 	add.w	r4, r0, #4294967295	; 0xffffffff
 80010d0:	d26c      	bcs.n	80011ac <__udivmoddi4+0x2b4>
 80010d2:	458e      	cmp	lr, r1
 80010d4:	d96a      	bls.n	80011ac <__udivmoddi4+0x2b4>
 80010d6:	3802      	subs	r0, #2
 80010d8:	4461      	add	r1, ip
 80010da:	ea40 4008 	orr.w	r0, r0, r8, lsl #16
 80010de:	fba0 9402 	umull	r9, r4, r0, r2
 80010e2:	eba1 010e 	sub.w	r1, r1, lr
 80010e6:	42a1      	cmp	r1, r4
 80010e8:	46c8      	mov	r8, r9
 80010ea:	46a6      	mov	lr, r4
 80010ec:	d356      	bcc.n	800119c <__udivmoddi4+0x2a4>
 80010ee:	d053      	beq.n	8001198 <__udivmoddi4+0x2a0>
 80010f0:	b15d      	cbz	r5, 800110a <__udivmoddi4+0x212>
 80010f2:	ebb3 0208 	subs.w	r2, r3, r8
 80010f6:	eb61 010e 	sbc.w	r1, r1, lr
 80010fa:	fa01 f707 	lsl.w	r7, r1, r7
 80010fe:	fa22 f306 	lsr.w	r3, r2, r6
 8001102:	40f1      	lsrs	r1, r6
 8001104:	431f      	orrs	r7, r3
 8001106:	e9c5 7100 	strd	r7, r1, [r5]
 800110a:	2600      	movs	r6, #0
 800110c:	4631      	mov	r1, r6
 800110e:	e8bd 87f0 	ldmia.w	sp!, {r4, r5, r6, r7, r8, r9, sl, pc}
 8001112:	f1c2 0320 	rsb	r3, r2, #32
 8001116:	40d8      	lsrs	r0, r3
 8001118:	fa0c fc02 	lsl.w	ip, ip, r2
 800111c:	fa21 f303 	lsr.w	r3, r1, r3
 8001120:	4091      	lsls	r1, r2
 8001122:	4301      	orrs	r1, r0
 8001124:	ea4f 471c 	mov.w	r7, ip, lsr #16
 8001128:	fa1f fe8c 	uxth.w	lr, ip
 800112c:	fbb3 f0f7 	udiv	r0, r3, r7
 8001130:	fb07 3610 	mls	r6, r7, r0, r3
 8001134:	0c0b      	lsrs	r3, r1, #16
 8001136:	ea43 4306 	orr.w	r3, r3, r6, lsl #16
 800113a:	fb00 f60e 	mul.w	r6, r0, lr
 800113e:	429e      	cmp	r6, r3
 8001140:	fa04 f402 	lsl.w	r4, r4, r2
 8001144:	d908      	bls.n	8001158 <__udivmoddi4+0x260>
 8001146:	eb1c 0303 	adds.w	r3, ip, r3
 800114a:	f100 38ff 	add.w	r8, r0, #4294967295	; 0xffffffff
 800114e:	d22f      	bcs.n	80011b0 <__udivmoddi4+0x2b8>
 8001150:	429e      	cmp	r6, r3
 8001152:	d92d      	bls.n	80011b0 <__udivmoddi4+0x2b8>
 8001154:	3802      	subs	r0, #2
 8001156:	4463      	add	r3, ip
 8001158:	1b9b      	subs	r3, r3, r6
 800115a:	b289      	uxth	r1, r1
 800115c:	fbb3 f6f7 	udiv	r6, r3, r7
 8001160:	fb07 3316 	mls	r3, r7, r6, r3
 8001164:	ea41 4103 	orr.w	r1, r1, r3, lsl #16
 8001168:	fb06 f30e 	mul.w	r3, r6, lr
 800116c:	428b      	cmp	r3, r1
 800116e:	d908      	bls.n	8001182 <__udivmoddi4+0x28a>
 8001170:	eb1c 0101 	adds.w	r1, ip, r1
 8001174:	f106 38ff 	add.w	r8, r6, #4294967295	; 0xffffffff
 8001178:	d216      	bcs.n	80011a8 <__udivmoddi4+0x2b0>
 800117a:	428b      	cmp	r3, r1
 800117c:	d914      	bls.n	80011a8 <__udivmoddi4+0x2b0>
 800117e:	3e02      	subs	r6, #2
 8001180:	4461      	add	r1, ip
 8001182:	1ac9      	subs	r1, r1, r3
 8001184:	ea46 4600 	orr.w	r6, r6, r0, lsl #16
 8001188:	e738      	b.n	8000ffc <__udivmoddi4+0x104>
 800118a:	462e      	mov	r6, r5
 800118c:	4628      	mov	r0, r5
 800118e:	e705      	b.n	8000f9c <__udivmoddi4+0xa4>
 8001190:	4606      	mov	r6, r0
 8001192:	e6e3      	b.n	8000f5c <__udivmoddi4+0x64>
 8001194:	4618      	mov	r0, r3
 8001196:	e6f8      	b.n	8000f8a <__udivmoddi4+0x92>
 8001198:	454b      	cmp	r3, r9
 800119a:	d2a9      	bcs.n	80010f0 <__udivmoddi4+0x1f8>
 800119c:	ebb9 0802 	subs.w	r8, r9, r2
 80011a0:	eb64 0e0c 	sbc.w	lr, r4, ip
 80011a4:	3801      	subs	r0, #1
 80011a6:	e7a3      	b.n	80010f0 <__udivmoddi4+0x1f8>
 80011a8:	4646      	mov	r6, r8
 80011aa:	e7ea      	b.n	8001182 <__udivmoddi4+0x28a>
 80011ac:	4620      	mov	r0, r4
 80011ae:	e794      	b.n	80010da <__udivmoddi4+0x1e2>
 80011b0:	4640      	mov	r0, r8
 80011b2:	e7d1      	b.n	8001158 <__udivmoddi4+0x260>
 80011b4:	46d0      	mov	r8, sl
 80011b6:	e77b      	b.n	80010b0 <__udivmoddi4+0x1b8>
 80011b8:	3b02      	subs	r3, #2
 80011ba:	4461      	add	r1, ip
 80011bc:	e732      	b.n	8001024 <__udivmoddi4+0x12c>
 80011be:	4630      	mov	r0, r6
 80011c0:	e709      	b.n	8000fd6 <__udivmoddi4+0xde>
 80011c2:	4464      	add	r4, ip
 80011c4:	3802      	subs	r0, #2
 80011c6:	e742      	b.n	800104e <__udivmoddi4+0x156>

080011c8 <selfrel_offset31>:
 80011c8:	6803      	ldr	r3, [r0, #0]
 80011ca:	005a      	lsls	r2, r3, #1
 80011cc:	bf4c      	ite	mi
 80011ce:	f043 4300 	orrmi.w	r3, r3, #2147483648	; 0x80000000
 80011d2:	f023 4300 	bicpl.w	r3, r3, #2147483648	; 0x80000000
 80011d6:	4418      	add	r0, r3
 80011d8:	4770      	bx	lr
 80011da:	bf00      	nop

080011dc <search_EIT_table>:
 80011dc:	e92d 43f8 	stmdb	sp!, {r3, r4, r5, r6, r7, r8, r9, lr}
 80011e0:	b329      	cbz	r1, 800122e <search_EIT_table+0x52>
 80011e2:	1e4f      	subs	r7, r1, #1
 80011e4:	4604      	mov	r4, r0
 80011e6:	4615      	mov	r5, r2
 80011e8:	463e      	mov	r6, r7
 80011ea:	f04f 0800 	mov.w	r8, #0
 80011ee:	eb08 0106 	add.w	r1, r8, r6
 80011f2:	eb01 71d1 	add.w	r1, r1, r1, lsr #31
 80011f6:	1049      	asrs	r1, r1, #1
 80011f8:	eb04 09c1 	add.w	r9, r4, r1, lsl #3
 80011fc:	4648      	mov	r0, r9
 80011fe:	f7ff ffe3 	bl	80011c8 <selfrel_offset31>
 8001202:	4603      	mov	r3, r0
 8001204:	00c8      	lsls	r0, r1, #3
 8001206:	3008      	adds	r0, #8
 8001208:	428f      	cmp	r7, r1
 800120a:	4420      	add	r0, r4
 800120c:	d009      	beq.n	8001222 <search_EIT_table+0x46>
 800120e:	42ab      	cmp	r3, r5
 8001210:	d809      	bhi.n	8001226 <search_EIT_table+0x4a>
 8001212:	f7ff ffd9 	bl	80011c8 <selfrel_offset31>
 8001216:	3801      	subs	r0, #1
 8001218:	42a8      	cmp	r0, r5
 800121a:	d20a      	bcs.n	8001232 <search_EIT_table+0x56>
 800121c:	f101 0801 	add.w	r8, r1, #1
 8001220:	e7e5      	b.n	80011ee <search_EIT_table+0x12>
 8001222:	42ab      	cmp	r3, r5
 8001224:	d905      	bls.n	8001232 <search_EIT_table+0x56>
 8001226:	4588      	cmp	r8, r1
 8001228:	d001      	beq.n	800122e <search_EIT_table+0x52>
 800122a:	1e4e      	subs	r6, r1, #1
 800122c:	e7df      	b.n	80011ee <search_EIT_table+0x12>
 800122e:	f04f 0900 	mov.w	r9, #0
 8001232:	4648      	mov	r0, r9
 8001234:	e8bd 83f8 	ldmia.w	sp!, {r3, r4, r5, r6, r7, r8, r9, pc}

08001238 <__gnu_unwind_get_pr_addr>:
 8001238:	2801      	cmp	r0, #1
 800123a:	d007      	beq.n	800124c <__gnu_unwind_get_pr_addr+0x14>
 800123c:	2802      	cmp	r0, #2
 800123e:	d007      	beq.n	8001250 <__gnu_unwind_get_pr_addr+0x18>
 8001240:	4b04      	ldr	r3, [pc, #16]	; (8001254 <__gnu_unwind_get_pr_addr+0x1c>)
 8001242:	2800      	cmp	r0, #0
 8001244:	bf0c      	ite	eq
 8001246:	4618      	moveq	r0, r3
 8001248:	2000      	movne	r0, #0
 800124a:	4770      	bx	lr
 800124c:	4802      	ldr	r0, [pc, #8]	; (8001258 <__gnu_unwind_get_pr_addr+0x20>)
 800124e:	4770      	bx	lr
 8001250:	4802      	ldr	r0, [pc, #8]	; (800125c <__gnu_unwind_get_pr_addr+0x24>)
 8001252:	4770      	bx	lr
 8001254:	08001911 	stmdaeq	r0, {r0, r4, r8, fp, ip}
 8001258:	08001915 	stmdaeq	r0, {r0, r2, r4, r8, fp, ip}
 800125c:	08001919 	stmdaeq	r0, {r0, r3, r4, r8, fp, ip}

08001260 <get_eit_entry>:
 8001260:	b530      	push	{r4, r5, lr}
 8001262:	4b23      	ldr	r3, [pc, #140]	; (80012f0 <get_eit_entry+0x90>)
 8001264:	b083      	sub	sp, #12
 8001266:	4604      	mov	r4, r0
 8001268:	1e8d      	subs	r5, r1, #2
 800126a:	b33b      	cbz	r3, 80012bc <get_eit_entry+0x5c>
 800126c:	a901      	add	r1, sp, #4
 800126e:	4628      	mov	r0, r5
 8001270:	f3af 8000 	nop.w
 8001274:	b1e8      	cbz	r0, 80012b2 <get_eit_entry+0x52>
 8001276:	9901      	ldr	r1, [sp, #4]
 8001278:	462a      	mov	r2, r5
 800127a:	f7ff ffaf 	bl	80011dc <search_EIT_table>
 800127e:	4601      	mov	r1, r0
 8001280:	b1b8      	cbz	r0, 80012b2 <get_eit_entry+0x52>
 8001282:	f7ff ffa1 	bl	80011c8 <selfrel_offset31>
 8001286:	684b      	ldr	r3, [r1, #4]
 8001288:	64a0      	str	r0, [r4, #72]	; 0x48
 800128a:	2b01      	cmp	r3, #1
 800128c:	d02c      	beq.n	80012e8 <get_eit_entry+0x88>
 800128e:	2b00      	cmp	r3, #0
 8001290:	f101 0004 	add.w	r0, r1, #4
 8001294:	db24      	blt.n	80012e0 <get_eit_entry+0x80>
 8001296:	f7ff ff97 	bl	80011c8 <selfrel_offset31>
 800129a:	2300      	movs	r3, #0
 800129c:	e9c4 0313 	strd	r0, r3, [r4, #76]	; 0x4c
 80012a0:	6803      	ldr	r3, [r0, #0]
 80012a2:	2b00      	cmp	r3, #0
 80012a4:	db11      	blt.n	80012ca <get_eit_entry+0x6a>
 80012a6:	f7ff ff8f 	bl	80011c8 <selfrel_offset31>
 80012aa:	6120      	str	r0, [r4, #16]
 80012ac:	2000      	movs	r0, #0
 80012ae:	b003      	add	sp, #12
 80012b0:	bd30      	pop	{r4, r5, pc}
 80012b2:	2300      	movs	r3, #0
 80012b4:	2009      	movs	r0, #9
 80012b6:	6123      	str	r3, [r4, #16]
 80012b8:	b003      	add	sp, #12
 80012ba:	bd30      	pop	{r4, r5, pc}
 80012bc:	4b0d      	ldr	r3, [pc, #52]	; (80012f4 <get_eit_entry+0x94>)
 80012be:	490e      	ldr	r1, [pc, #56]	; (80012f8 <get_eit_entry+0x98>)
 80012c0:	1ac9      	subs	r1, r1, r3
 80012c2:	10c9      	asrs	r1, r1, #3
 80012c4:	4618      	mov	r0, r3
 80012c6:	9101      	str	r1, [sp, #4]
 80012c8:	e7d6      	b.n	8001278 <get_eit_entry+0x18>
 80012ca:	f3c3 6003 	ubfx	r0, r3, #24, #4
 80012ce:	f7ff ffb3 	bl	8001238 <__gnu_unwind_get_pr_addr>
 80012d2:	2800      	cmp	r0, #0
 80012d4:	6120      	str	r0, [r4, #16]
 80012d6:	bf14      	ite	ne
 80012d8:	2000      	movne	r0, #0
 80012da:	2009      	moveq	r0, #9
 80012dc:	b003      	add	sp, #12
 80012de:	bd30      	pop	{r4, r5, pc}
 80012e0:	2301      	movs	r3, #1
 80012e2:	e9c4 0313 	strd	r0, r3, [r4, #76]	; 0x4c
 80012e6:	e7db      	b.n	80012a0 <get_eit_entry+0x40>
 80012e8:	2300      	movs	r3, #0
 80012ea:	6123      	str	r3, [r4, #16]
 80012ec:	2005      	movs	r0, #5
 80012ee:	e7de      	b.n	80012ae <get_eit_entry+0x4e>
 80012f0:	00000000 	andeq	r0, r0, r0
 80012f4:	080022f0 	stmdaeq	r0, {r4, r5, r6, r7, r9, sp}
 80012f8:	080023f8 	stmdaeq	r0, {r3, r4, r5, r6, r7, r8, r9, sp}

080012fc <restore_non_core_regs>:
 80012fc:	6803      	ldr	r3, [r0, #0]
 80012fe:	07da      	lsls	r2, r3, #31
 8001300:	b510      	push	{r4, lr}
 8001302:	4604      	mov	r4, r0
 8001304:	d406      	bmi.n	8001314 <restore_non_core_regs+0x18>
 8001306:	079b      	lsls	r3, r3, #30
 8001308:	f100 0048 	add.w	r0, r0, #72	; 0x48
 800130c:	d509      	bpl.n	8001322 <restore_non_core_regs+0x26>
 800130e:	f000 fc5b 	bl	8001bc8 <__gnu_Unwind_Restore_VFP_D>
 8001312:	6823      	ldr	r3, [r4, #0]
 8001314:	0759      	lsls	r1, r3, #29
 8001316:	d509      	bpl.n	800132c <restore_non_core_regs+0x30>
 8001318:	071a      	lsls	r2, r3, #28
 800131a:	d50e      	bpl.n	800133a <restore_non_core_regs+0x3e>
 800131c:	06db      	lsls	r3, r3, #27
 800131e:	d513      	bpl.n	8001348 <restore_non_core_regs+0x4c>
 8001320:	bd10      	pop	{r4, pc}
 8001322:	f000 fc49 	bl	8001bb8 <__gnu_Unwind_Restore_VFP>
 8001326:	6823      	ldr	r3, [r4, #0]
 8001328:	0759      	lsls	r1, r3, #29
 800132a:	d4f5      	bmi.n	8001318 <restore_non_core_regs+0x1c>
 800132c:	f104 00d0 	add.w	r0, r4, #208	; 0xd0
 8001330:	f000 fc52 	bl	8001bd8 <__gnu_Unwind_Restore_VFP_D_16_to_31>
 8001334:	6823      	ldr	r3, [r4, #0]
 8001336:	071a      	lsls	r2, r3, #28
 8001338:	d4f0      	bmi.n	800131c <restore_non_core_regs+0x20>
 800133a:	f504 70a8 	add.w	r0, r4, #336	; 0x150
 800133e:	f000 fc53 	bl	8001be8 <__gnu_Unwind_Restore_WMMXD>
 8001342:	6823      	ldr	r3, [r4, #0]
 8001344:	06db      	lsls	r3, r3, #27
 8001346:	d4eb      	bmi.n	8001320 <restore_non_core_regs+0x24>
 8001348:	f504 70e8 	add.w	r0, r4, #464	; 0x1d0
 800134c:	e8bd 4010 	ldmia.w	sp!, {r4, lr}
 8001350:	f000 bc8e 	b.w	8001c70 <__gnu_Unwind_Restore_WMMXC>

08001354 <__gnu_unwind_24bit.constprop.0>:
 8001354:	2009      	movs	r0, #9
 8001356:	4770      	bx	lr

08001358 <_Unwind_decode_typeinfo_ptr.constprop.0>:
 8001358:	4603      	mov	r3, r0
 800135a:	6800      	ldr	r0, [r0, #0]
 800135c:	b100      	cbz	r0, 8001360 <_Unwind_decode_typeinfo_ptr.constprop.0+0x8>
 800135e:	4418      	add	r0, r3
 8001360:	4770      	bx	lr
 8001362:	bf00      	nop

08001364 <_Unwind_DebugHook>:
 8001364:	4770      	bx	lr
 8001366:	bf00      	nop

08001368 <unwind_phase2>:
 8001368:	b570      	push	{r4, r5, r6, lr}
 800136a:	4604      	mov	r4, r0
 800136c:	460e      	mov	r6, r1
 800136e:	6c31      	ldr	r1, [r6, #64]	; 0x40
 8001370:	4620      	mov	r0, r4
 8001372:	f7ff ff75 	bl	8001260 <get_eit_entry>
 8001376:	4605      	mov	r5, r0
 8001378:	b988      	cbnz	r0, 800139e <unwind_phase2+0x36>
 800137a:	6c32      	ldr	r2, [r6, #64]	; 0x40
 800137c:	6162      	str	r2, [r4, #20]
 800137e:	6923      	ldr	r3, [r4, #16]
 8001380:	4632      	mov	r2, r6
 8001382:	4621      	mov	r1, r4
 8001384:	2001      	movs	r0, #1
 8001386:	4798      	blx	r3
 8001388:	2808      	cmp	r0, #8
 800138a:	d0f0      	beq.n	800136e <unwind_phase2+0x6>
 800138c:	2807      	cmp	r0, #7
 800138e:	d106      	bne.n	800139e <unwind_phase2+0x36>
 8001390:	4628      	mov	r0, r5
 8001392:	6c31      	ldr	r1, [r6, #64]	; 0x40
 8001394:	f7ff ffe6 	bl	8001364 <_Unwind_DebugHook>
 8001398:	1d30      	adds	r0, r6, #4
 800139a:	f000 fc01 	bl	8001ba0 <__restore_core_regs>
 800139e:	f000 fe7f 	bl	80020a0 <abort>
 80013a2:	bf00      	nop

080013a4 <unwind_phase2_forced>:
 80013a4:	e92d 47f0 	stmdb	sp!, {r4, r5, r6, r7, r8, r9, sl, lr}
 80013a8:	1d0d      	adds	r5, r1, #4
 80013aa:	f8d0 800c 	ldr.w	r8, [r0, #12]
 80013ae:	f8d0 9018 	ldr.w	r9, [r0, #24]
 80013b2:	4607      	mov	r7, r0
 80013b4:	4614      	mov	r4, r2
 80013b6:	cd0f      	ldmia	r5!, {r0, r1, r2, r3}
 80013b8:	f5ad 7d72 	sub.w	sp, sp, #968	; 0x3c8
 80013bc:	f10d 0c0c 	add.w	ip, sp, #12
 80013c0:	e8ac 000f 	stmia.w	ip!, {r0, r1, r2, r3}
 80013c4:	cd0f      	ldmia	r5!, {r0, r1, r2, r3}
 80013c6:	e8ac 000f 	stmia.w	ip!, {r0, r1, r2, r3}
 80013ca:	cd0f      	ldmia	r5!, {r0, r1, r2, r3}
 80013cc:	e8ac 000f 	stmia.w	ip!, {r0, r1, r2, r3}
 80013d0:	e895 000f 	ldmia.w	r5, {r0, r1, r2, r3}
 80013d4:	ae02      	add	r6, sp, #8
 80013d6:	f04f 0e00 	mov.w	lr, #0
 80013da:	e88c 000f 	stmia.w	ip, {r0, r1, r2, r3}
 80013de:	f8c6 e000 	str.w	lr, [r6]
 80013e2:	e020      	b.n	8001426 <unwind_phase2_forced+0x82>
 80013e4:	6c33      	ldr	r3, [r6, #64]	; 0x40
 80013e6:	617b      	str	r3, [r7, #20]
 80013e8:	f44f 72f0 	mov.w	r2, #480	; 0x1e0
 80013ec:	4631      	mov	r1, r6
 80013ee:	a87a      	add	r0, sp, #488	; 0x1e8
 80013f0:	f000 fe5e 	bl	80020b0 <memcpy>
 80013f4:	693b      	ldr	r3, [r7, #16]
 80013f6:	aa7a      	add	r2, sp, #488	; 0x1e8
 80013f8:	4639      	mov	r1, r7
 80013fa:	4650      	mov	r0, sl
 80013fc:	4798      	blx	r3
 80013fe:	9b88      	ldr	r3, [sp, #544]	; 0x220
 8001400:	6473      	str	r3, [r6, #68]	; 0x44
 8001402:	4621      	mov	r1, r4
 8001404:	e9cd 6900 	strd	r6, r9, [sp]
 8001408:	4605      	mov	r5, r0
 800140a:	463b      	mov	r3, r7
 800140c:	463a      	mov	r2, r7
 800140e:	2001      	movs	r0, #1
 8001410:	47c0      	blx	r8
 8001412:	4604      	mov	r4, r0
 8001414:	b9e0      	cbnz	r0, 8001450 <unwind_phase2_forced+0xac>
 8001416:	f44f 72f0 	mov.w	r2, #480	; 0x1e0
 800141a:	a97a      	add	r1, sp, #488	; 0x1e8
 800141c:	4630      	mov	r0, r6
 800141e:	f000 fe47 	bl	80020b0 <memcpy>
 8001422:	2d08      	cmp	r5, #8
 8001424:	d11a      	bne.n	800145c <unwind_phase2_forced+0xb8>
 8001426:	6c31      	ldr	r1, [r6, #64]	; 0x40
 8001428:	4638      	mov	r0, r7
 800142a:	f7ff ff19 	bl	8001260 <get_eit_entry>
 800142e:	3409      	adds	r4, #9
 8001430:	fa5f fa84 	uxtb.w	sl, r4
 8001434:	4605      	mov	r5, r0
 8001436:	2800      	cmp	r0, #0
 8001438:	d0d4      	beq.n	80013e4 <unwind_phase2_forced+0x40>
 800143a:	6bb3      	ldr	r3, [r6, #56]	; 0x38
 800143c:	6473      	str	r3, [r6, #68]	; 0x44
 800143e:	463a      	mov	r2, r7
 8001440:	e9cd 6900 	strd	r6, r9, [sp]
 8001444:	463b      	mov	r3, r7
 8001446:	f04a 0110 	orr.w	r1, sl, #16
 800144a:	2001      	movs	r0, #1
 800144c:	47c0      	blx	r8
 800144e:	b100      	cbz	r0, 8001452 <unwind_phase2_forced+0xae>
 8001450:	2509      	movs	r5, #9
 8001452:	4628      	mov	r0, r5
 8001454:	f50d 7d72 	add.w	sp, sp, #968	; 0x3c8
 8001458:	e8bd 87f0 	ldmia.w	sp!, {r4, r5, r6, r7, r8, r9, sl, pc}
 800145c:	2d07      	cmp	r5, #7
 800145e:	d1f7      	bne.n	8001450 <unwind_phase2_forced+0xac>
 8001460:	4620      	mov	r0, r4
 8001462:	6c31      	ldr	r1, [r6, #64]	; 0x40
 8001464:	f7ff ff7e 	bl	8001364 <_Unwind_DebugHook>
 8001468:	a803      	add	r0, sp, #12
 800146a:	f000 fb99 	bl	8001ba0 <__restore_core_regs>
 800146e:	bf00      	nop

08001470 <_Unwind_GetCFA>:
 8001470:	6c40      	ldr	r0, [r0, #68]	; 0x44
 8001472:	4770      	bx	lr

08001474 <__gnu_Unwind_RaiseException>:
 8001474:	b5f0      	push	{r4, r5, r6, r7, lr}
 8001476:	6bcb      	ldr	r3, [r1, #60]	; 0x3c
 8001478:	640b      	str	r3, [r1, #64]	; 0x40
 800147a:	f101 0c04 	add.w	ip, r1, #4
 800147e:	460e      	mov	r6, r1
 8001480:	4605      	mov	r5, r0
 8001482:	e8bc 000f 	ldmia.w	ip!, {r0, r1, r2, r3}
 8001486:	b0f9      	sub	sp, #484	; 0x1e4
 8001488:	ac01      	add	r4, sp, #4
 800148a:	c40f      	stmia	r4!, {r0, r1, r2, r3}
 800148c:	e8bc 000f 	ldmia.w	ip!, {r0, r1, r2, r3}
 8001490:	c40f      	stmia	r4!, {r0, r1, r2, r3}
 8001492:	e8bc 000f 	ldmia.w	ip!, {r0, r1, r2, r3}
 8001496:	c40f      	stmia	r4!, {r0, r1, r2, r3}
 8001498:	e89c 000f 	ldmia.w	ip, {r0, r1, r2, r3}
 800149c:	f04f 37ff 	mov.w	r7, #4294967295	; 0xffffffff
 80014a0:	e884 000f 	stmia.w	r4, {r0, r1, r2, r3}
 80014a4:	9700      	str	r7, [sp, #0]
 80014a6:	e006      	b.n	80014b6 <__gnu_Unwind_RaiseException+0x42>
 80014a8:	692b      	ldr	r3, [r5, #16]
 80014aa:	466a      	mov	r2, sp
 80014ac:	4629      	mov	r1, r5
 80014ae:	4798      	blx	r3
 80014b0:	2808      	cmp	r0, #8
 80014b2:	4604      	mov	r4, r0
 80014b4:	d108      	bne.n	80014c8 <__gnu_Unwind_RaiseException+0x54>
 80014b6:	9910      	ldr	r1, [sp, #64]	; 0x40
 80014b8:	4628      	mov	r0, r5
 80014ba:	f7ff fed1 	bl	8001260 <get_eit_entry>
 80014be:	2800      	cmp	r0, #0
 80014c0:	d0f2      	beq.n	80014a8 <__gnu_Unwind_RaiseException+0x34>
 80014c2:	2009      	movs	r0, #9
 80014c4:	b079      	add	sp, #484	; 0x1e4
 80014c6:	bdf0      	pop	{r4, r5, r6, r7, pc}
 80014c8:	4668      	mov	r0, sp
 80014ca:	f7ff ff17 	bl	80012fc <restore_non_core_regs>
 80014ce:	2c06      	cmp	r4, #6
 80014d0:	d1f7      	bne.n	80014c2 <__gnu_Unwind_RaiseException+0x4e>
 80014d2:	4631      	mov	r1, r6
 80014d4:	4628      	mov	r0, r5
 80014d6:	f7ff ff47 	bl	8001368 <unwind_phase2>
 80014da:	bf00      	nop

080014dc <__gnu_Unwind_ForcedUnwind>:
 80014dc:	60c1      	str	r1, [r0, #12]
 80014de:	6bd9      	ldr	r1, [r3, #60]	; 0x3c
 80014e0:	6182      	str	r2, [r0, #24]
 80014e2:	6419      	str	r1, [r3, #64]	; 0x40
 80014e4:	2200      	movs	r2, #0
 80014e6:	4619      	mov	r1, r3
 80014e8:	e75c      	b.n	80013a4 <unwind_phase2_forced>
 80014ea:	bf00      	nop

080014ec <__gnu_Unwind_Resume>:
 80014ec:	b570      	push	{r4, r5, r6, lr}
 80014ee:	68c6      	ldr	r6, [r0, #12]
 80014f0:	6943      	ldr	r3, [r0, #20]
 80014f2:	640b      	str	r3, [r1, #64]	; 0x40
 80014f4:	b9ae      	cbnz	r6, 8001522 <__gnu_Unwind_Resume+0x36>
 80014f6:	6903      	ldr	r3, [r0, #16]
 80014f8:	460a      	mov	r2, r1
 80014fa:	4604      	mov	r4, r0
 80014fc:	460d      	mov	r5, r1
 80014fe:	4601      	mov	r1, r0
 8001500:	2002      	movs	r0, #2
 8001502:	4798      	blx	r3
 8001504:	2807      	cmp	r0, #7
 8001506:	d005      	beq.n	8001514 <__gnu_Unwind_Resume+0x28>
 8001508:	2808      	cmp	r0, #8
 800150a:	d10f      	bne.n	800152c <__gnu_Unwind_Resume+0x40>
 800150c:	4629      	mov	r1, r5
 800150e:	4620      	mov	r0, r4
 8001510:	f7ff ff2a 	bl	8001368 <unwind_phase2>
 8001514:	4630      	mov	r0, r6
 8001516:	6c29      	ldr	r1, [r5, #64]	; 0x40
 8001518:	f7ff ff24 	bl	8001364 <_Unwind_DebugHook>
 800151c:	1d28      	adds	r0, r5, #4
 800151e:	f000 fb3f 	bl	8001ba0 <__restore_core_regs>
 8001522:	2201      	movs	r2, #1
 8001524:	f7ff ff3e 	bl	80013a4 <unwind_phase2_forced>
 8001528:	f000 fdba 	bl	80020a0 <abort>
 800152c:	f000 fdb8 	bl	80020a0 <abort>

08001530 <__gnu_Unwind_Resume_or_Rethrow>:
 8001530:	68c2      	ldr	r2, [r0, #12]
 8001532:	b11a      	cbz	r2, 800153c <__gnu_Unwind_Resume_or_Rethrow+0xc>
 8001534:	6bca      	ldr	r2, [r1, #60]	; 0x3c
 8001536:	640a      	str	r2, [r1, #64]	; 0x40
 8001538:	2200      	movs	r2, #0
 800153a:	e733      	b.n	80013a4 <unwind_phase2_forced>
 800153c:	e79a      	b.n	8001474 <__gnu_Unwind_RaiseException>
 800153e:	bf00      	nop

08001540 <_Unwind_Complete>:
 8001540:	4770      	bx	lr
 8001542:	bf00      	nop

08001544 <_Unwind_DeleteException>:
 8001544:	6883      	ldr	r3, [r0, #8]
 8001546:	4601      	mov	r1, r0
 8001548:	b10b      	cbz	r3, 800154e <_Unwind_DeleteException+0xa>
 800154a:	2001      	movs	r0, #1
 800154c:	4718      	bx	r3
 800154e:	4770      	bx	lr

08001550 <_Unwind_VRS_Get>:
 8001550:	2901      	cmp	r1, #1
 8001552:	d012      	beq.n	800157a <_Unwind_VRS_Get+0x2a>
 8001554:	d809      	bhi.n	800156a <_Unwind_VRS_Get+0x1a>
 8001556:	b973      	cbnz	r3, 8001576 <_Unwind_VRS_Get+0x26>
 8001558:	2a0f      	cmp	r2, #15
 800155a:	d80c      	bhi.n	8001576 <_Unwind_VRS_Get+0x26>
 800155c:	eb00 0282 	add.w	r2, r0, r2, lsl #2
 8001560:	4618      	mov	r0, r3
 8001562:	6853      	ldr	r3, [r2, #4]
 8001564:	9a00      	ldr	r2, [sp, #0]
 8001566:	6013      	str	r3, [r2, #0]
 8001568:	4770      	bx	lr
 800156a:	3903      	subs	r1, #3
 800156c:	2901      	cmp	r1, #1
 800156e:	bf94      	ite	ls
 8001570:	2001      	movls	r0, #1
 8001572:	2002      	movhi	r0, #2
 8001574:	4770      	bx	lr
 8001576:	2002      	movs	r0, #2
 8001578:	4770      	bx	lr
 800157a:	4608      	mov	r0, r1
 800157c:	4770      	bx	lr
 800157e:	bf00      	nop

08001580 <_Unwind_GetGR>:
 8001580:	b500      	push	{lr}
 8001582:	b085      	sub	sp, #20
 8001584:	460a      	mov	r2, r1
 8001586:	2300      	movs	r3, #0
 8001588:	a903      	add	r1, sp, #12
 800158a:	9100      	str	r1, [sp, #0]
 800158c:	4619      	mov	r1, r3
 800158e:	f7ff ffdf 	bl	8001550 <_Unwind_VRS_Get>
 8001592:	9803      	ldr	r0, [sp, #12]
 8001594:	b005      	add	sp, #20
 8001596:	f85d fb04 	ldr.w	pc, [sp], #4
 800159a:	bf00      	nop

0800159c <_Unwind_VRS_Set>:
 800159c:	2901      	cmp	r1, #1
 800159e:	d012      	beq.n	80015c6 <_Unwind_VRS_Set+0x2a>
 80015a0:	d809      	bhi.n	80015b6 <_Unwind_VRS_Set+0x1a>
 80015a2:	b973      	cbnz	r3, 80015c2 <_Unwind_VRS_Set+0x26>
 80015a4:	2a0f      	cmp	r2, #15
 80015a6:	d80c      	bhi.n	80015c2 <_Unwind_VRS_Set+0x26>
 80015a8:	eb00 0082 	add.w	r0, r0, r2, lsl #2
 80015ac:	9a00      	ldr	r2, [sp, #0]
 80015ae:	6812      	ldr	r2, [r2, #0]
 80015b0:	6042      	str	r2, [r0, #4]
 80015b2:	4618      	mov	r0, r3
 80015b4:	4770      	bx	lr
 80015b6:	3903      	subs	r1, #3
 80015b8:	2901      	cmp	r1, #1
 80015ba:	bf94      	ite	ls
 80015bc:	2001      	movls	r0, #1
 80015be:	2002      	movhi	r0, #2
 80015c0:	4770      	bx	lr
 80015c2:	2002      	movs	r0, #2
 80015c4:	4770      	bx	lr
 80015c6:	4608      	mov	r0, r1
 80015c8:	4770      	bx	lr
 80015ca:	bf00      	nop

080015cc <_Unwind_SetGR>:
 80015cc:	b510      	push	{r4, lr}
 80015ce:	b084      	sub	sp, #16
 80015d0:	2300      	movs	r3, #0
 80015d2:	ac03      	add	r4, sp, #12
 80015d4:	9203      	str	r2, [sp, #12]
 80015d6:	9400      	str	r4, [sp, #0]
 80015d8:	460a      	mov	r2, r1
 80015da:	4619      	mov	r1, r3
 80015dc:	f7ff ffde 	bl	800159c <_Unwind_VRS_Set>
 80015e0:	b004      	add	sp, #16
 80015e2:	bd10      	pop	{r4, pc}

080015e4 <__gnu_Unwind_Backtrace>:
 80015e4:	b570      	push	{r4, r5, r6, lr}
 80015e6:	6bd3      	ldr	r3, [r2, #60]	; 0x3c
 80015e8:	6413      	str	r3, [r2, #64]	; 0x40
 80015ea:	f102 0c04 	add.w	ip, r2, #4
 80015ee:	4605      	mov	r5, r0
 80015f0:	460c      	mov	r4, r1
 80015f2:	e8bc 000f 	ldmia.w	ip!, {r0, r1, r2, r3}
 80015f6:	f5ad 7d0e 	sub.w	sp, sp, #568	; 0x238
 80015fa:	f10d 0e5c 	add.w	lr, sp, #92	; 0x5c
 80015fe:	e8ae 000f 	stmia.w	lr!, {r0, r1, r2, r3}
 8001602:	e8bc 000f 	ldmia.w	ip!, {r0, r1, r2, r3}
 8001606:	e8ae 000f 	stmia.w	lr!, {r0, r1, r2, r3}
 800160a:	e8bc 000f 	ldmia.w	ip!, {r0, r1, r2, r3}
 800160e:	e8ae 000f 	stmia.w	lr!, {r0, r1, r2, r3}
 8001612:	e89c 000f 	ldmia.w	ip, {r0, r1, r2, r3}
 8001616:	f04f 36ff 	mov.w	r6, #4294967295	; 0xffffffff
 800161a:	e88e 000f 	stmia.w	lr, {r0, r1, r2, r3}
 800161e:	9616      	str	r6, [sp, #88]	; 0x58
 8001620:	e010      	b.n	8001644 <__gnu_Unwind_Backtrace+0x60>
 8001622:	f7ff ffd3 	bl	80015cc <_Unwind_SetGR>
 8001626:	4621      	mov	r1, r4
 8001628:	a816      	add	r0, sp, #88	; 0x58
 800162a:	47a8      	blx	r5
 800162c:	4603      	mov	r3, r0
 800162e:	aa16      	add	r2, sp, #88	; 0x58
 8001630:	4669      	mov	r1, sp
 8001632:	2008      	movs	r0, #8
 8001634:	b983      	cbnz	r3, 8001658 <__gnu_Unwind_Backtrace+0x74>
 8001636:	9b04      	ldr	r3, [sp, #16]
 8001638:	4798      	blx	r3
 800163a:	2805      	cmp	r0, #5
 800163c:	4606      	mov	r6, r0
 800163e:	d00c      	beq.n	800165a <__gnu_Unwind_Backtrace+0x76>
 8001640:	2809      	cmp	r0, #9
 8001642:	d009      	beq.n	8001658 <__gnu_Unwind_Backtrace+0x74>
 8001644:	9926      	ldr	r1, [sp, #152]	; 0x98
 8001646:	4668      	mov	r0, sp
 8001648:	f7ff fe0a 	bl	8001260 <get_eit_entry>
 800164c:	4603      	mov	r3, r0
 800164e:	466a      	mov	r2, sp
 8001650:	210c      	movs	r1, #12
 8001652:	a816      	add	r0, sp, #88	; 0x58
 8001654:	2b00      	cmp	r3, #0
 8001656:	d0e4      	beq.n	8001622 <__gnu_Unwind_Backtrace+0x3e>
 8001658:	2609      	movs	r6, #9
 800165a:	a816      	add	r0, sp, #88	; 0x58
 800165c:	f7ff fe4e 	bl	80012fc <restore_non_core_regs>
 8001660:	4630      	mov	r0, r6
 8001662:	f50d 7d0e 	add.w	sp, sp, #568	; 0x238
 8001666:	bd70      	pop	{r4, r5, r6, pc}

08001668 <__gnu_unwind_pr_common>:
 8001668:	e92d 4ff0 	stmdb	sp!, {r4, r5, r6, r7, r8, r9, sl, fp, lr}
 800166c:	6ccc      	ldr	r4, [r1, #76]	; 0x4c
 800166e:	b089      	sub	sp, #36	; 0x24
 8001670:	461e      	mov	r6, r3
 8001672:	f854 3b04 	ldr.w	r3, [r4], #4
 8001676:	9406      	str	r4, [sp, #24]
 8001678:	460d      	mov	r5, r1
 800167a:	4617      	mov	r7, r2
 800167c:	f000 0803 	and.w	r8, r0, #3
 8001680:	2e00      	cmp	r6, #0
 8001682:	d079      	beq.n	8001778 <__gnu_unwind_pr_common+0x110>
 8001684:	0c1a      	lsrs	r2, r3, #16
 8001686:	041b      	lsls	r3, r3, #16
 8001688:	9305      	str	r3, [sp, #20]
 800168a:	f88d 201d 	strb.w	r2, [sp, #29]
 800168e:	2302      	movs	r3, #2
 8001690:	b2d2      	uxtb	r2, r2
 8001692:	eb04 0482 	add.w	r4, r4, r2, lsl #2
 8001696:	f88d 301c 	strb.w	r3, [sp, #28]
 800169a:	6d2b      	ldr	r3, [r5, #80]	; 0x50
 800169c:	f1b8 0f02 	cmp.w	r8, #2
 80016a0:	bf08      	it	eq
 80016a2:	6bac      	ldreq	r4, [r5, #56]	; 0x38
 80016a4:	f013 0301 	ands.w	r3, r3, #1
 80016a8:	d00c      	beq.n	80016c4 <__gnu_unwind_pr_common+0x5c>
 80016aa:	a905      	add	r1, sp, #20
 80016ac:	4638      	mov	r0, r7
 80016ae:	f000 fb79 	bl	8001da4 <__gnu_unwind_execute>
 80016b2:	b918      	cbnz	r0, 80016bc <__gnu_unwind_pr_common+0x54>
 80016b4:	2008      	movs	r0, #8
 80016b6:	b009      	add	sp, #36	; 0x24
 80016b8:	e8bd 8ff0 	ldmia.w	sp!, {r4, r5, r6, r7, r8, r9, sl, fp, pc}
 80016bc:	2009      	movs	r0, #9
 80016be:	b009      	add	sp, #36	; 0x24
 80016c0:	e8bd 8ff0 	ldmia.w	sp!, {r4, r5, r6, r7, r8, r9, sl, fp, pc}
 80016c4:	f8d4 a000 	ldr.w	sl, [r4]
 80016c8:	f1ba 0f00 	cmp.w	sl, #0
 80016cc:	d0ed      	beq.n	80016aa <__gnu_unwind_pr_common+0x42>
 80016ce:	9301      	str	r3, [sp, #4]
 80016d0:	f000 0308 	and.w	r3, r0, #8
 80016d4:	9302      	str	r3, [sp, #8]
 80016d6:	2e02      	cmp	r6, #2
 80016d8:	d04a      	beq.n	8001770 <__gnu_unwind_pr_common+0x108>
 80016da:	f8b4 a000 	ldrh.w	sl, [r4]
 80016de:	f8b4 9002 	ldrh.w	r9, [r4, #2]
 80016e2:	3404      	adds	r4, #4
 80016e4:	6cab      	ldr	r3, [r5, #72]	; 0x48
 80016e6:	f029 0b01 	bic.w	fp, r9, #1
 80016ea:	210f      	movs	r1, #15
 80016ec:	4638      	mov	r0, r7
 80016ee:	449b      	add	fp, r3
 80016f0:	f7ff ff46 	bl	8001580 <_Unwind_GetGR>
 80016f4:	4583      	cmp	fp, r0
 80016f6:	d839      	bhi.n	800176c <__gnu_unwind_pr_common+0x104>
 80016f8:	f02a 0301 	bic.w	r3, sl, #1
 80016fc:	449b      	add	fp, r3
 80016fe:	4583      	cmp	fp, r0
 8001700:	bf94      	ite	ls
 8001702:	2000      	movls	r0, #0
 8001704:	2001      	movhi	r0, #1
 8001706:	ea4f 0349 	mov.w	r3, r9, lsl #1
 800170a:	f003 0302 	and.w	r3, r3, #2
 800170e:	f00a 0a01 	and.w	sl, sl, #1
 8001712:	ea43 030a 	orr.w	r3, r3, sl
 8001716:	2b01      	cmp	r3, #1
 8001718:	d049      	beq.n	80017ae <__gnu_unwind_pr_common+0x146>
 800171a:	2b02      	cmp	r3, #2
 800171c:	d032      	beq.n	8001784 <__gnu_unwind_pr_common+0x11c>
 800171e:	2b00      	cmp	r3, #0
 8001720:	d1cc      	bne.n	80016bc <__gnu_unwind_pr_common+0x54>
 8001722:	f1b8 0f00 	cmp.w	r8, #0
 8001726:	d002      	beq.n	800172e <__gnu_unwind_pr_common+0xc6>
 8001728:	2800      	cmp	r0, #0
 800172a:	f040 80cd 	bne.w	80018c8 <__gnu_unwind_pr_common+0x260>
 800172e:	3404      	adds	r4, #4
 8001730:	f8d4 a000 	ldr.w	sl, [r4]
 8001734:	f1ba 0f00 	cmp.w	sl, #0
 8001738:	d1cd      	bne.n	80016d6 <__gnu_unwind_pr_common+0x6e>
 800173a:	a905      	add	r1, sp, #20
 800173c:	4638      	mov	r0, r7
 800173e:	f000 fb31 	bl	8001da4 <__gnu_unwind_execute>
 8001742:	2800      	cmp	r0, #0
 8001744:	d1ba      	bne.n	80016bc <__gnu_unwind_pr_common+0x54>
 8001746:	9b01      	ldr	r3, [sp, #4]
 8001748:	2b00      	cmp	r3, #0
 800174a:	d0b3      	beq.n	80016b4 <__gnu_unwind_pr_common+0x4c>
 800174c:	210f      	movs	r1, #15
 800174e:	4638      	mov	r0, r7
 8001750:	f7ff ff16 	bl	8001580 <_Unwind_GetGR>
 8001754:	210e      	movs	r1, #14
 8001756:	4602      	mov	r2, r0
 8001758:	4638      	mov	r0, r7
 800175a:	f7ff ff37 	bl	80015cc <_Unwind_SetGR>
 800175e:	4638      	mov	r0, r7
 8001760:	4a6a      	ldr	r2, [pc, #424]	; (800190c <__gnu_unwind_pr_common+0x2a4>)
 8001762:	210f      	movs	r1, #15
 8001764:	f7ff ff32 	bl	80015cc <_Unwind_SetGR>
 8001768:	2007      	movs	r0, #7
 800176a:	e7a8      	b.n	80016be <__gnu_unwind_pr_common+0x56>
 800176c:	2000      	movs	r0, #0
 800176e:	e7ca      	b.n	8001706 <__gnu_unwind_pr_common+0x9e>
 8001770:	f8d4 9004 	ldr.w	r9, [r4, #4]
 8001774:	3408      	adds	r4, #8
 8001776:	e7b5      	b.n	80016e4 <__gnu_unwind_pr_common+0x7c>
 8001778:	021b      	lsls	r3, r3, #8
 800177a:	9305      	str	r3, [sp, #20]
 800177c:	2303      	movs	r3, #3
 800177e:	f8ad 301c 	strh.w	r3, [sp, #28]
 8001782:	e78a      	b.n	800169a <__gnu_unwind_pr_common+0x32>
 8001784:	6823      	ldr	r3, [r4, #0]
 8001786:	f023 4b00 	bic.w	fp, r3, #2147483648	; 0x80000000
 800178a:	f1b8 0f00 	cmp.w	r8, #0
 800178e:	d145      	bne.n	800181c <__gnu_unwind_pr_common+0x1b4>
 8001790:	b128      	cbz	r0, 800179e <__gnu_unwind_pr_common+0x136>
 8001792:	9a02      	ldr	r2, [sp, #8]
 8001794:	2a00      	cmp	r2, #0
 8001796:	d05c      	beq.n	8001852 <__gnu_unwind_pr_common+0x1ea>
 8001798:	f1bb 0f00 	cmp.w	fp, #0
 800179c:	d074      	beq.n	8001888 <__gnu_unwind_pr_common+0x220>
 800179e:	2b00      	cmp	r3, #0
 80017a0:	da00      	bge.n	80017a4 <__gnu_unwind_pr_common+0x13c>
 80017a2:	3404      	adds	r4, #4
 80017a4:	f10b 0b01 	add.w	fp, fp, #1
 80017a8:	eb04 048b 	add.w	r4, r4, fp, lsl #2
 80017ac:	e7c0      	b.n	8001730 <__gnu_unwind_pr_common+0xc8>
 80017ae:	f1b8 0f00 	cmp.w	r8, #0
 80017b2:	d119      	bne.n	80017e8 <__gnu_unwind_pr_common+0x180>
 80017b4:	b1b0      	cbz	r0, 80017e4 <__gnu_unwind_pr_common+0x17c>
 80017b6:	6863      	ldr	r3, [r4, #4]
 80017b8:	6822      	ldr	r2, [r4, #0]
 80017ba:	1c99      	adds	r1, r3, #2
 80017bc:	ea4f 72d2 	mov.w	r2, r2, lsr #31
 80017c0:	f43f af7c 	beq.w	80016bc <__gnu_unwind_pr_common+0x54>
 80017c4:	f105 0158 	add.w	r1, r5, #88	; 0x58
 80017c8:	3301      	adds	r3, #1
 80017ca:	9104      	str	r1, [sp, #16]
 80017cc:	f000 8090 	beq.w	80018f0 <__gnu_unwind_pr_common+0x288>
 80017d0:	1d20      	adds	r0, r4, #4
 80017d2:	f7ff fdc1 	bl	8001358 <_Unwind_decode_typeinfo_ptr.constprop.0>
 80017d6:	ab04      	add	r3, sp, #16
 80017d8:	4601      	mov	r1, r0
 80017da:	4628      	mov	r0, r5
 80017dc:	f3af 8000 	nop.w
 80017e0:	2800      	cmp	r0, #0
 80017e2:	d15b      	bne.n	800189c <__gnu_unwind_pr_common+0x234>
 80017e4:	3408      	adds	r4, #8
 80017e6:	e7a3      	b.n	8001730 <__gnu_unwind_pr_common+0xc8>
 80017e8:	210d      	movs	r1, #13
 80017ea:	4638      	mov	r0, r7
 80017ec:	f8d5 9020 	ldr.w	r9, [r5, #32]
 80017f0:	f7ff fec6 	bl	8001580 <_Unwind_GetGR>
 80017f4:	4581      	cmp	r9, r0
 80017f6:	d1f5      	bne.n	80017e4 <__gnu_unwind_pr_common+0x17c>
 80017f8:	6aab      	ldr	r3, [r5, #40]	; 0x28
 80017fa:	429c      	cmp	r4, r3
 80017fc:	d1f2      	bne.n	80017e4 <__gnu_unwind_pr_common+0x17c>
 80017fe:	4620      	mov	r0, r4
 8001800:	f7ff fce2 	bl	80011c8 <selfrel_offset31>
 8001804:	210f      	movs	r1, #15
 8001806:	4602      	mov	r2, r0
 8001808:	4638      	mov	r0, r7
 800180a:	f7ff fedf 	bl	80015cc <_Unwind_SetGR>
 800180e:	4638      	mov	r0, r7
 8001810:	462a      	mov	r2, r5
 8001812:	2100      	movs	r1, #0
 8001814:	f7ff feda 	bl	80015cc <_Unwind_SetGR>
 8001818:	2007      	movs	r0, #7
 800181a:	e750      	b.n	80016be <__gnu_unwind_pr_common+0x56>
 800181c:	210d      	movs	r1, #13
 800181e:	4638      	mov	r0, r7
 8001820:	f8d5 9020 	ldr.w	r9, [r5, #32]
 8001824:	f7ff feac 	bl	8001580 <_Unwind_GetGR>
 8001828:	4581      	cmp	r9, r0
 800182a:	d001      	beq.n	8001830 <__gnu_unwind_pr_common+0x1c8>
 800182c:	6823      	ldr	r3, [r4, #0]
 800182e:	e7b6      	b.n	800179e <__gnu_unwind_pr_common+0x136>
 8001830:	6aab      	ldr	r3, [r5, #40]	; 0x28
 8001832:	429c      	cmp	r4, r3
 8001834:	d1fa      	bne.n	800182c <__gnu_unwind_pr_common+0x1c4>
 8001836:	2304      	movs	r3, #4
 8001838:	2200      	movs	r2, #0
 800183a:	e9c5 230b 	strd	r2, r3, [r5, #44]	; 0x2c
 800183e:	18e3      	adds	r3, r4, r3
 8001840:	f8c5 b028 	str.w	fp, [r5, #40]	; 0x28
 8001844:	636b      	str	r3, [r5, #52]	; 0x34
 8001846:	6823      	ldr	r3, [r4, #0]
 8001848:	2b00      	cmp	r3, #0
 800184a:	db59      	blt.n	8001900 <__gnu_unwind_pr_common+0x298>
 800184c:	2301      	movs	r3, #1
 800184e:	9301      	str	r3, [sp, #4]
 8001850:	e7a8      	b.n	80017a4 <__gnu_unwind_pr_common+0x13c>
 8001852:	f105 0358 	add.w	r3, r5, #88	; 0x58
 8001856:	f8cd 800c 	str.w	r8, [sp, #12]
 800185a:	f104 0a04 	add.w	sl, r4, #4
 800185e:	46b0      	mov	r8, r6
 8001860:	4691      	mov	r9, r2
 8001862:	461e      	mov	r6, r3
 8001864:	e00e      	b.n	8001884 <__gnu_unwind_pr_common+0x21c>
 8001866:	4650      	mov	r0, sl
 8001868:	9604      	str	r6, [sp, #16]
 800186a:	f7ff fd75 	bl	8001358 <_Unwind_decode_typeinfo_ptr.constprop.0>
 800186e:	2200      	movs	r2, #0
 8001870:	4601      	mov	r1, r0
 8001872:	ab04      	add	r3, sp, #16
 8001874:	4628      	mov	r0, r5
 8001876:	f109 0901 	add.w	r9, r9, #1
 800187a:	f10a 0a04 	add.w	sl, sl, #4
 800187e:	f3af 8000 	nop.w
 8001882:	b9e0      	cbnz	r0, 80018be <__gnu_unwind_pr_common+0x256>
 8001884:	45d9      	cmp	r9, fp
 8001886:	d1ee      	bne.n	8001866 <__gnu_unwind_pr_common+0x1fe>
 8001888:	210d      	movs	r1, #13
 800188a:	4638      	mov	r0, r7
 800188c:	f7ff fe78 	bl	8001580 <_Unwind_GetGR>
 8001890:	9b04      	ldr	r3, [sp, #16]
 8001892:	62ac      	str	r4, [r5, #40]	; 0x28
 8001894:	e9c5 0308 	strd	r0, r3, [r5, #32]
 8001898:	2006      	movs	r0, #6
 800189a:	e710      	b.n	80016be <__gnu_unwind_pr_common+0x56>
 800189c:	4681      	mov	r9, r0
 800189e:	210d      	movs	r1, #13
 80018a0:	4638      	mov	r0, r7
 80018a2:	f7ff fe6d 	bl	8001580 <_Unwind_GetGR>
 80018a6:	f1b9 0f02 	cmp.w	r9, #2
 80018aa:	6228      	str	r0, [r5, #32]
 80018ac:	d125      	bne.n	80018fa <__gnu_unwind_pr_common+0x292>
 80018ae:	462b      	mov	r3, r5
 80018b0:	9a04      	ldr	r2, [sp, #16]
 80018b2:	f843 2f2c 	str.w	r2, [r3, #44]!
 80018b6:	626b      	str	r3, [r5, #36]	; 0x24
 80018b8:	62ac      	str	r4, [r5, #40]	; 0x28
 80018ba:	2006      	movs	r0, #6
 80018bc:	e6ff      	b.n	80016be <__gnu_unwind_pr_common+0x56>
 80018be:	4646      	mov	r6, r8
 80018c0:	6823      	ldr	r3, [r4, #0]
 80018c2:	f8dd 800c 	ldr.w	r8, [sp, #12]
 80018c6:	e76a      	b.n	800179e <__gnu_unwind_pr_common+0x136>
 80018c8:	4620      	mov	r0, r4
 80018ca:	f7ff fc7d 	bl	80011c8 <selfrel_offset31>
 80018ce:	3404      	adds	r4, #4
 80018d0:	4602      	mov	r2, r0
 80018d2:	63ac      	str	r4, [r5, #56]	; 0x38
 80018d4:	4628      	mov	r0, r5
 80018d6:	4614      	mov	r4, r2
 80018d8:	f3af 8000 	nop.w
 80018dc:	2800      	cmp	r0, #0
 80018de:	f43f aeed 	beq.w	80016bc <__gnu_unwind_pr_common+0x54>
 80018e2:	4638      	mov	r0, r7
 80018e4:	4622      	mov	r2, r4
 80018e6:	210f      	movs	r1, #15
 80018e8:	f7ff fe70 	bl	80015cc <_Unwind_SetGR>
 80018ec:	2007      	movs	r0, #7
 80018ee:	e6e6      	b.n	80016be <__gnu_unwind_pr_common+0x56>
 80018f0:	210d      	movs	r1, #13
 80018f2:	4638      	mov	r0, r7
 80018f4:	f7ff fe44 	bl	8001580 <_Unwind_GetGR>
 80018f8:	6228      	str	r0, [r5, #32]
 80018fa:	9b04      	ldr	r3, [sp, #16]
 80018fc:	626b      	str	r3, [r5, #36]	; 0x24
 80018fe:	e7db      	b.n	80018b8 <__gnu_unwind_pr_common+0x250>
 8001900:	f10b 0001 	add.w	r0, fp, #1
 8001904:	eb04 0080 	add.w	r0, r4, r0, lsl #2
 8001908:	e77a      	b.n	8001800 <__gnu_unwind_pr_common+0x198>
 800190a:	bf00      	nop
 800190c:	00000000 	andeq	r0, r0, r0

08001910 <__aeabi_unwind_cpp_pr0>:
 8001910:	2300      	movs	r3, #0
 8001912:	e6a9      	b.n	8001668 <__gnu_unwind_pr_common>

08001914 <__aeabi_unwind_cpp_pr1>:
 8001914:	2301      	movs	r3, #1
 8001916:	e6a7      	b.n	8001668 <__gnu_unwind_pr_common>

08001918 <__aeabi_unwind_cpp_pr2>:
 8001918:	2302      	movs	r3, #2
 800191a:	e6a5      	b.n	8001668 <__gnu_unwind_pr_common>

0800191c <_Unwind_VRS_Pop>:
 800191c:	e92d 43f0 	stmdb	sp!, {r4, r5, r6, r7, r8, r9, lr}
 8001920:	4606      	mov	r6, r0
 8001922:	b0c3      	sub	sp, #268	; 0x10c
 8001924:	4615      	mov	r5, r2
 8001926:	461c      	mov	r4, r3
 8001928:	2904      	cmp	r1, #4
 800192a:	f200 80bf 	bhi.w	8001aac <_Unwind_VRS_Pop+0x190>
 800192e:	e8df f001 	tbb	[pc, r1]
 8001932:	2dbd579e 	ldccs	7, cr5, [sp, #632]!	; 0x278
 8001936:	2c000003 	stccs	0, cr0, [r0], {3}
 800193a:	f040 80b7 	bne.w	8001aac <_Unwind_VRS_Pop+0x190>
 800193e:	2a10      	cmp	r2, #16
 8001940:	f200 80b4 	bhi.w	8001aac <_Unwind_VRS_Pop+0x190>
 8001944:	6803      	ldr	r3, [r0, #0]
 8001946:	06d8      	lsls	r0, r3, #27
 8001948:	f100 80f9 	bmi.w	8001b3e <_Unwind_VRS_Pop+0x222>
 800194c:	af20      	add	r7, sp, #128	; 0x80
 800194e:	4638      	mov	r0, r7
 8001950:	f000 f998 	bl	8001c84 <__gnu_Unwind_Save_WMMXC>
 8001954:	6bb4      	ldr	r4, [r6, #56]	; 0x38
 8001956:	4639      	mov	r1, r7
 8001958:	2300      	movs	r3, #0
 800195a:	f04f 0c01 	mov.w	ip, #1
 800195e:	fa0c f203 	lsl.w	r2, ip, r3
 8001962:	422a      	tst	r2, r5
 8001964:	4620      	mov	r0, r4
 8001966:	f103 0301 	add.w	r3, r3, #1
 800196a:	d003      	beq.n	8001974 <_Unwind_VRS_Pop+0x58>
 800196c:	f850 2b04 	ldr.w	r2, [r0], #4
 8001970:	600a      	str	r2, [r1, #0]
 8001972:	4604      	mov	r4, r0
 8001974:	2b04      	cmp	r3, #4
 8001976:	f101 0104 	add.w	r1, r1, #4
 800197a:	d1f0      	bne.n	800195e <_Unwind_VRS_Pop+0x42>
 800197c:	4638      	mov	r0, r7
 800197e:	63b4      	str	r4, [r6, #56]	; 0x38
 8001980:	f000 f976 	bl	8001c70 <__gnu_Unwind_Restore_WMMXC>
 8001984:	2000      	movs	r0, #0
 8001986:	b043      	add	sp, #268	; 0x10c
 8001988:	e8bd 83f0 	ldmia.w	sp!, {r4, r5, r6, r7, r8, r9, pc}
 800198c:	2c03      	cmp	r4, #3
 800198e:	f040 808d 	bne.w	8001aac <_Unwind_VRS_Pop+0x190>
 8001992:	b294      	uxth	r4, r2
 8001994:	eb04 4312 	add.w	r3, r4, r2, lsr #16
 8001998:	2b10      	cmp	r3, #16
 800199a:	ea4f 4512 	mov.w	r5, r2, lsr #16
 800199e:	f200 8085 	bhi.w	8001aac <_Unwind_VRS_Pop+0x190>
 80019a2:	6803      	ldr	r3, [r0, #0]
 80019a4:	071f      	lsls	r7, r3, #28
 80019a6:	f100 80d2 	bmi.w	8001b4e <_Unwind_VRS_Pop+0x232>
 80019aa:	af20      	add	r7, sp, #128	; 0x80
 80019ac:	4638      	mov	r0, r7
 80019ae:	f000 f93d 	bl	8001c2c <__gnu_Unwind_Save_WMMXD>
 80019b2:	6bb2      	ldr	r2, [r6, #56]	; 0x38
 80019b4:	eb07 01c5 	add.w	r1, r7, r5, lsl #3
 80019b8:	b154      	cbz	r4, 80019d0 <_Unwind_VRS_Pop+0xb4>
 80019ba:	460b      	mov	r3, r1
 80019bc:	1ad0      	subs	r0, r2, r3
 80019be:	eb01 01c4 	add.w	r1, r1, r4, lsl #3
 80019c2:	00e4      	lsls	r4, r4, #3
 80019c4:	581d      	ldr	r5, [r3, r0]
 80019c6:	f843 5b04 	str.w	r5, [r3], #4
 80019ca:	428b      	cmp	r3, r1
 80019cc:	d1fa      	bne.n	80019c4 <_Unwind_VRS_Pop+0xa8>
 80019ce:	4422      	add	r2, r4
 80019d0:	4638      	mov	r0, r7
 80019d2:	63b2      	str	r2, [r6, #56]	; 0x38
 80019d4:	f000 f908 	bl	8001be8 <__gnu_Unwind_Restore_WMMXD>
 80019d8:	2000      	movs	r0, #0
 80019da:	b043      	add	sp, #268	; 0x10c
 80019dc:	e8bd 83f0 	ldmia.w	sp!, {r4, r5, r6, r7, r8, r9, pc}
 80019e0:	2c01      	cmp	r4, #1
 80019e2:	ea4f 4812 	mov.w	r8, r2, lsr #16
 80019e6:	b295      	uxth	r5, r2
 80019e8:	d05c      	beq.n	8001aa4 <_Unwind_VRS_Pop+0x188>
 80019ea:	2c05      	cmp	r4, #5
 80019ec:	d15e      	bne.n	8001aac <_Unwind_VRS_Pop+0x190>
 80019ee:	eb08 0905 	add.w	r9, r8, r5
 80019f2:	f1b9 0f20 	cmp.w	r9, #32
 80019f6:	d859      	bhi.n	8001aac <_Unwind_VRS_Pop+0x190>
 80019f8:	f1b8 0f0f 	cmp.w	r8, #15
 80019fc:	d979      	bls.n	8001af2 <_Unwind_VRS_Pop+0x1d6>
 80019fe:	46a9      	mov	r9, r5
 8001a00:	2d00      	cmp	r5, #0
 8001a02:	f040 808a 	bne.w	8001b1a <_Unwind_VRS_Pop+0x1fe>
 8001a06:	6bb3      	ldr	r3, [r6, #56]	; 0x38
 8001a08:	b36d      	cbz	r5, 8001a66 <_Unwind_VRS_Pop+0x14a>
 8001a0a:	af20      	add	r7, sp, #128	; 0x80
 8001a0c:	f04f 0900 	mov.w	r9, #0
 8001a10:	eb07 07c8 	add.w	r7, r7, r8, lsl #3
 8001a14:	3f04      	subs	r7, #4
 8001a16:	eb03 05c5 	add.w	r5, r3, r5, lsl #3
 8001a1a:	f853 1b04 	ldr.w	r1, [r3], #4
 8001a1e:	f847 1f04 	str.w	r1, [r7, #4]!
 8001a22:	42ab      	cmp	r3, r5
 8001a24:	d1f9      	bne.n	8001a1a <_Unwind_VRS_Pop+0xfe>
 8001a26:	f1b9 0f00 	cmp.w	r9, #0
 8001a2a:	d00f      	beq.n	8001a4c <_Unwind_VRS_Pop+0x130>
 8001a2c:	466f      	mov	r7, sp
 8001a2e:	4641      	mov	r1, r8
 8001a30:	2910      	cmp	r1, #16
 8001a32:	bf38      	it	cc
 8001a34:	2110      	movcc	r1, #16
 8001a36:	eb07 01c1 	add.w	r1, r7, r1, lsl #3
 8001a3a:	3984      	subs	r1, #132	; 0x84
 8001a3c:	eb03 05c9 	add.w	r5, r3, r9, lsl #3
 8001a40:	f853 0b04 	ldr.w	r0, [r3], #4
 8001a44:	f841 0f04 	str.w	r0, [r1, #4]!
 8001a48:	42ab      	cmp	r3, r5
 8001a4a:	d1f9      	bne.n	8001a40 <_Unwind_VRS_Pop+0x124>
 8001a4c:	2c01      	cmp	r4, #1
 8001a4e:	f000 8086 	beq.w	8001b5e <_Unwind_VRS_Pop+0x242>
 8001a52:	f1b8 0f0f 	cmp.w	r8, #15
 8001a56:	63b5      	str	r5, [r6, #56]	; 0x38
 8001a58:	d947      	bls.n	8001aea <_Unwind_VRS_Pop+0x1ce>
 8001a5a:	f1b9 0f00 	cmp.w	r9, #0
 8001a5e:	d002      	beq.n	8001a66 <_Unwind_VRS_Pop+0x14a>
 8001a60:	4668      	mov	r0, sp
 8001a62:	f000 f8b9 	bl	8001bd8 <__gnu_Unwind_Restore_VFP_D_16_to_31>
 8001a66:	2000      	movs	r0, #0
 8001a68:	b043      	add	sp, #268	; 0x10c
 8001a6a:	e8bd 83f0 	ldmia.w	sp!, {r4, r5, r6, r7, r8, r9, pc}
 8001a6e:	b9ec      	cbnz	r4, 8001aac <_Unwind_VRS_Pop+0x190>
 8001a70:	6b80      	ldr	r0, [r0, #56]	; 0x38
 8001a72:	4623      	mov	r3, r4
 8001a74:	fa1f fc82 	uxth.w	ip, r2
 8001a78:	2401      	movs	r4, #1
 8001a7a:	1d37      	adds	r7, r6, #4
 8001a7c:	fa04 f203 	lsl.w	r2, r4, r3
 8001a80:	ea12 0f0c 	tst.w	r2, ip
 8001a84:	4601      	mov	r1, r0
 8001a86:	d004      	beq.n	8001a92 <_Unwind_VRS_Pop+0x176>
 8001a88:	f851 2b04 	ldr.w	r2, [r1], #4
 8001a8c:	f847 2023 	str.w	r2, [r7, r3, lsl #2]
 8001a90:	4608      	mov	r0, r1
 8001a92:	3301      	adds	r3, #1
 8001a94:	2b10      	cmp	r3, #16
 8001a96:	d1f1      	bne.n	8001a7c <_Unwind_VRS_Pop+0x160>
 8001a98:	f415 5500 	ands.w	r5, r5, #8192	; 0x2000
 8001a9c:	d1e3      	bne.n	8001a66 <_Unwind_VRS_Pop+0x14a>
 8001a9e:	63b0      	str	r0, [r6, #56]	; 0x38
 8001aa0:	4628      	mov	r0, r5
 8001aa2:	e004      	b.n	8001aae <_Unwind_VRS_Pop+0x192>
 8001aa4:	eb08 0305 	add.w	r3, r8, r5
 8001aa8:	2b10      	cmp	r3, #16
 8001aaa:	d903      	bls.n	8001ab4 <_Unwind_VRS_Pop+0x198>
 8001aac:	2002      	movs	r0, #2
 8001aae:	b043      	add	sp, #268	; 0x10c
 8001ab0:	e8bd 83f0 	ldmia.w	sp!, {r4, r5, r6, r7, r8, r9, pc}
 8001ab4:	f1b8 0f0f 	cmp.w	r8, #15
 8001ab8:	d8f8      	bhi.n	8001aac <_Unwind_VRS_Pop+0x190>
 8001aba:	6833      	ldr	r3, [r6, #0]
 8001abc:	07da      	lsls	r2, r3, #31
 8001abe:	d506      	bpl.n	8001ace <_Unwind_VRS_Pop+0x1b2>
 8001ac0:	4630      	mov	r0, r6
 8001ac2:	f023 0303 	bic.w	r3, r3, #3
 8001ac6:	f840 3b48 	str.w	r3, [r0], #72
 8001aca:	f000 f879 	bl	8001bc0 <__gnu_Unwind_Save_VFP>
 8001ace:	af20      	add	r7, sp, #128	; 0x80
 8001ad0:	4638      	mov	r0, r7
 8001ad2:	f000 f875 	bl	8001bc0 <__gnu_Unwind_Save_VFP>
 8001ad6:	6bb3      	ldr	r3, [r6, #56]	; 0x38
 8001ad8:	2d00      	cmp	r5, #0
 8001ada:	d197      	bne.n	8001a0c <_Unwind_VRS_Pop+0xf0>
 8001adc:	461d      	mov	r5, r3
 8001ade:	3504      	adds	r5, #4
 8001ae0:	63b5      	str	r5, [r6, #56]	; 0x38
 8001ae2:	4638      	mov	r0, r7
 8001ae4:	f000 f868 	bl	8001bb8 <__gnu_Unwind_Restore_VFP>
 8001ae8:	e7bd      	b.n	8001a66 <_Unwind_VRS_Pop+0x14a>
 8001aea:	a820      	add	r0, sp, #128	; 0x80
 8001aec:	f000 f86c 	bl	8001bc8 <__gnu_Unwind_Restore_VFP_D>
 8001af0:	e7b3      	b.n	8001a5a <_Unwind_VRS_Pop+0x13e>
 8001af2:	f1b9 0f10 	cmp.w	r9, #16
 8001af6:	d940      	bls.n	8001b7a <_Unwind_VRS_Pop+0x25e>
 8001af8:	f1a9 0910 	sub.w	r9, r9, #16
 8001afc:	6833      	ldr	r3, [r6, #0]
 8001afe:	07d9      	lsls	r1, r3, #31
 8001b00:	d508      	bpl.n	8001b14 <_Unwind_VRS_Pop+0x1f8>
 8001b02:	f023 0301 	bic.w	r3, r3, #1
 8001b06:	4630      	mov	r0, r6
 8001b08:	f043 0302 	orr.w	r3, r3, #2
 8001b0c:	f840 3b48 	str.w	r3, [r0], #72
 8001b10:	f000 f85e 	bl	8001bd0 <__gnu_Unwind_Save_VFP_D>
 8001b14:	f1b9 0f00 	cmp.w	r9, #0
 8001b18:	d032      	beq.n	8001b80 <_Unwind_VRS_Pop+0x264>
 8001b1a:	6833      	ldr	r3, [r6, #0]
 8001b1c:	075a      	lsls	r2, r3, #29
 8001b1e:	d420      	bmi.n	8001b62 <_Unwind_VRS_Pop+0x246>
 8001b20:	f1b8 0f0f 	cmp.w	r8, #15
 8001b24:	d925      	bls.n	8001b72 <_Unwind_VRS_Pop+0x256>
 8001b26:	466f      	mov	r7, sp
 8001b28:	4638      	mov	r0, r7
 8001b2a:	f1c8 0510 	rsb	r5, r8, #16
 8001b2e:	f000 f857 	bl	8001be0 <__gnu_Unwind_Save_VFP_D_16_to_31>
 8001b32:	2d00      	cmp	r5, #0
 8001b34:	6bb3      	ldr	r3, [r6, #56]	; 0x38
 8001b36:	f77f af7a 	ble.w	8001a2e <_Unwind_VRS_Pop+0x112>
 8001b3a:	af20      	add	r7, sp, #128	; 0x80
 8001b3c:	e768      	b.n	8001a10 <_Unwind_VRS_Pop+0xf4>
 8001b3e:	f023 0310 	bic.w	r3, r3, #16
 8001b42:	6033      	str	r3, [r6, #0]
 8001b44:	f506 70e8 	add.w	r0, r6, #464	; 0x1d0
 8001b48:	f000 f89c 	bl	8001c84 <__gnu_Unwind_Save_WMMXC>
 8001b4c:	e6fe      	b.n	800194c <_Unwind_VRS_Pop+0x30>
 8001b4e:	f023 0308 	bic.w	r3, r3, #8
 8001b52:	6003      	str	r3, [r0, #0]
 8001b54:	f500 70a8 	add.w	r0, r0, #336	; 0x150
 8001b58:	f000 f868 	bl	8001c2c <__gnu_Unwind_Save_WMMXD>
 8001b5c:	e725      	b.n	80019aa <_Unwind_VRS_Pop+0x8e>
 8001b5e:	af20      	add	r7, sp, #128	; 0x80
 8001b60:	e7bd      	b.n	8001ade <_Unwind_VRS_Pop+0x1c2>
 8001b62:	4630      	mov	r0, r6
 8001b64:	f023 0304 	bic.w	r3, r3, #4
 8001b68:	f840 3bd0 	str.w	r3, [r0], #208
 8001b6c:	f000 f838 	bl	8001be0 <__gnu_Unwind_Save_VFP_D_16_to_31>
 8001b70:	e7d6      	b.n	8001b20 <_Unwind_VRS_Pop+0x204>
 8001b72:	a820      	add	r0, sp, #128	; 0x80
 8001b74:	f000 f82c 	bl	8001bd0 <__gnu_Unwind_Save_VFP_D>
 8001b78:	e7d5      	b.n	8001b26 <_Unwind_VRS_Pop+0x20a>
 8001b7a:	f04f 0900 	mov.w	r9, #0
 8001b7e:	e7bd      	b.n	8001afc <_Unwind_VRS_Pop+0x1e0>
 8001b80:	f1b8 0f0f 	cmp.w	r8, #15
 8001b84:	f63f af3f 	bhi.w	8001a06 <_Unwind_VRS_Pop+0xea>
 8001b88:	af20      	add	r7, sp, #128	; 0x80
 8001b8a:	4638      	mov	r0, r7
 8001b8c:	f000 f820 	bl	8001bd0 <__gnu_Unwind_Save_VFP_D>
 8001b90:	6bb3      	ldr	r3, [r6, #56]	; 0x38
 8001b92:	2d00      	cmp	r5, #0
 8001b94:	f47f af3a 	bne.w	8001a0c <_Unwind_VRS_Pop+0xf0>
 8001b98:	4638      	mov	r0, r7
 8001b9a:	f000 f815 	bl	8001bc8 <__gnu_Unwind_Restore_VFP_D>
 8001b9e:	e762      	b.n	8001a66 <_Unwind_VRS_Pop+0x14a>

08001ba0 <__restore_core_regs>:
 8001ba0:	f100 0134 	add.w	r1, r0, #52	; 0x34
 8001ba4:	e891 0038 	ldmia.w	r1, {r3, r4, r5}
 8001ba8:	469c      	mov	ip, r3
 8001baa:	46a6      	mov	lr, r4
 8001bac:	f84c 5d04 	str.w	r5, [ip, #-4]!
 8001bb0:	e890 0fff 	ldmia.w	r0, {r0, r1, r2, r3, r4, r5, r6, r7, r8, r9, sl, fp}
 8001bb4:	46e5      	mov	sp, ip
 8001bb6:	bd00      	pop	{pc}

08001bb8 <__gnu_Unwind_Restore_VFP>:
 8001bb8:	ec90 0b21 	fldmiax	r0, {d0-d15}	;@ Deprecated
 8001bbc:	4770      	bx	lr
 8001bbe:	bf00      	nop

08001bc0 <__gnu_Unwind_Save_VFP>:
 8001bc0:	ec80 0b21 	fstmiax	r0, {d0-d15}	;@ Deprecated
 8001bc4:	4770      	bx	lr
 8001bc6:	bf00      	nop

08001bc8 <__gnu_Unwind_Restore_VFP_D>:
 8001bc8:	ec90 0b20 	vldmia	r0, {d0-d15}
 8001bcc:	4770      	bx	lr
 8001bce:	bf00      	nop

08001bd0 <__gnu_Unwind_Save_VFP_D>:
 8001bd0:	ec80 0b20 	vstmia	r0, {d0-d15}
 8001bd4:	4770      	bx	lr
 8001bd6:	bf00      	nop

08001bd8 <__gnu_Unwind_Restore_VFP_D_16_to_31>:
 8001bd8:	ecd0 0b20 	vldmia	r0, {d16-d31}
 8001bdc:	4770      	bx	lr
 8001bde:	bf00      	nop

08001be0 <__gnu_Unwind_Save_VFP_D_16_to_31>:
 8001be0:	ecc0 0b20 	vstmia	r0, {d16-d31}
 8001be4:	4770      	bx	lr
 8001be6:	bf00      	nop

08001be8 <__gnu_Unwind_Restore_WMMXD>:
 8001be8:	ecf0 0102 	ldfe	f0, [r0], #8
 8001bec:	ecf0 1102 	ldfe	f1, [r0], #8
 8001bf0:	ecf0 2102 	ldfe	f2, [r0], #8
 8001bf4:	ecf0 3102 	ldfe	f3, [r0], #8
 8001bf8:	ecf0 4102 	ldfe	f4, [r0], #8
 8001bfc:	ecf0 5102 	ldfe	f5, [r0], #8
 8001c00:	ecf0 6102 	ldfe	f6, [r0], #8
 8001c04:	ecf0 7102 	ldfe	f7, [r0], #8
 8001c08:	ecf0 8102 	ldfp	f0, [r0], #8
 8001c0c:	ecf0 9102 	ldfp	f1, [r0], #8
 8001c10:	ecf0 a102 	ldfp	f2, [r0], #8
 8001c14:	ecf0 b102 	ldfp	f3, [r0], #8
 8001c18:	ecf0 c102 	ldfp	f4, [r0], #8
 8001c1c:	ecf0 d102 	ldfp	f5, [r0], #8
 8001c20:	ecf0 e102 	ldfp	f6, [r0], #8
 8001c24:	ecf0 f102 	ldfp	f7, [r0], #8
 8001c28:	4770      	bx	lr
 8001c2a:	bf00      	nop

08001c2c <__gnu_Unwind_Save_WMMXD>:
 8001c2c:	ece0 0102 	stfe	f0, [r0], #8
 8001c30:	ece0 1102 	stfe	f1, [r0], #8
 8001c34:	ece0 2102 	stfe	f2, [r0], #8
 8001c38:	ece0 3102 	stfe	f3, [r0], #8
 8001c3c:	ece0 4102 	stfe	f4, [r0], #8
 8001c40:	ece0 5102 	stfe	f5, [r0], #8
 8001c44:	ece0 6102 	stfe	f6, [r0], #8
 8001c48:	ece0 7102 	stfe	f7, [r0], #8
 8001c4c:	ece0 8102 	stfp	f0, [r0], #8
 8001c50:	ece0 9102 	stfp	f1, [r0], #8
 8001c54:	ece0 a102 	stfp	f2, [r0], #8
 8001c58:	ece0 b102 	stfp	f3, [r0], #8
 8001c5c:	ece0 c102 	stfp	f4, [r0], #8
 8001c60:	ece0 d102 	stfp	f5, [r0], #8
 8001c64:	ece0 e102 	stfp	f6, [r0], #8
 8001c68:	ece0 f102 	stfp	f7, [r0], #8
 8001c6c:	4770      	bx	lr
 8001c6e:	bf00      	nop

08001c70 <__gnu_Unwind_Restore_WMMXC>:
 8001c70:	fcb0 8101 	ldc2	1, cr8, [r0], #4
 8001c74:	fcb0 9101 	ldc2	1, cr9, [r0], #4
 8001c78:	fcb0 a101 	ldc2	1, cr10, [r0], #4
 8001c7c:	fcb0 b101 	ldc2	1, cr11, [r0], #4
 8001c80:	4770      	bx	lr
 8001c82:	bf00      	nop

08001c84 <__gnu_Unwind_Save_WMMXC>:
 8001c84:	fca0 8101 	stc2	1, cr8, [r0], #4
 8001c88:	fca0 9101 	stc2	1, cr9, [r0], #4
 8001c8c:	fca0 a101 	stc2	1, cr10, [r0], #4
 8001c90:	fca0 b101 	stc2	1, cr11, [r0], #4
 8001c94:	4770      	bx	lr
 8001c96:	bf00      	nop

08001c98 <_Unwind_RaiseException>:
 8001c98:	46ec      	mov	ip, sp
 8001c9a:	b500      	push	{lr}
 8001c9c:	e92d 5000 	stmdb	sp!, {ip, lr}
 8001ca0:	e92d 1fff 	stmdb	sp!, {r0, r1, r2, r3, r4, r5, r6, r7, r8, r9, sl, fp, ip}
 8001ca4:	f04f 0300 	mov.w	r3, #0
 8001ca8:	e92d 000c 	stmdb	sp!, {r2, r3}
 8001cac:	a901      	add	r1, sp, #4
 8001cae:	f7ff fbe1 	bl	8001474 <__gnu_Unwind_RaiseException>
 8001cb2:	f8dd e040 	ldr.w	lr, [sp, #64]	; 0x40
 8001cb6:	b012      	add	sp, #72	; 0x48
 8001cb8:	4770      	bx	lr
 8001cba:	bf00      	nop

08001cbc <_Unwind_Resume>:
 8001cbc:	46ec      	mov	ip, sp
 8001cbe:	b500      	push	{lr}
 8001cc0:	e92d 5000 	stmdb	sp!, {ip, lr}
 8001cc4:	e92d 1fff 	stmdb	sp!, {r0, r1, r2, r3, r4, r5, r6, r7, r8, r9, sl, fp, ip}
 8001cc8:	f04f 0300 	mov.w	r3, #0
 8001ccc:	e92d 000c 	stmdb	sp!, {r2, r3}
 8001cd0:	a901      	add	r1, sp, #4
 8001cd2:	f7ff fc0b 	bl	80014ec <__gnu_Unwind_Resume>
 8001cd6:	f8dd e040 	ldr.w	lr, [sp, #64]	; 0x40
 8001cda:	b012      	add	sp, #72	; 0x48
 8001cdc:	4770      	bx	lr
 8001cde:	bf00      	nop

08001ce0 <_Unwind_Resume_or_Rethrow>:
 8001ce0:	46ec      	mov	ip, sp
 8001ce2:	b500      	push	{lr}
 8001ce4:	e92d 5000 	stmdb	sp!, {ip, lr}
 8001ce8:	e92d 1fff 	stmdb	sp!, {r0, r1, r2, r3, r4, r5, r6, r7, r8, r9, sl, fp, ip}
 8001cec:	f04f 0300 	mov.w	r3, #0
 8001cf0:	e92d 000c 	stmdb	sp!, {r2, r3}
 8001cf4:	a901      	add	r1, sp, #4
 8001cf6:	f7ff fc1b 	bl	8001530 <__gnu_Unwind_Resume_or_Rethrow>
 8001cfa:	f8dd e040 	ldr.w	lr, [sp, #64]	; 0x40
 8001cfe:	b012      	add	sp, #72	; 0x48
 8001d00:	4770      	bx	lr
 8001d02:	bf00      	nop

08001d04 <_Unwind_ForcedUnwind>:
 8001d04:	46ec      	mov	ip, sp
 8001d06:	b500      	push	{lr}
 8001d08:	e92d 5000 	stmdb	sp!, {ip, lr}
 8001d0c:	e92d 1fff 	stmdb	sp!, {r0, r1, r2, r3, r4, r5, r6, r7, r8, r9, sl, fp, ip}
 8001d10:	f04f 0300 	mov.w	r3, #0
 8001d14:	e92d 000c 	stmdb	sp!, {r2, r3}
 8001d18:	ab01      	add	r3, sp, #4
 8001d1a:	f7ff fbdf 	bl	80014dc <__gnu_Unwind_ForcedUnwind>
 8001d1e:	f8dd e040 	ldr.w	lr, [sp, #64]	; 0x40
 8001d22:	b012      	add	sp, #72	; 0x48
 8001d24:	4770      	bx	lr
 8001d26:	bf00      	nop

08001d28 <_Unwind_Backtrace>:
 8001d28:	46ec      	mov	ip, sp
 8001d2a:	b500      	push	{lr}
 8001d2c:	e92d 5000 	stmdb	sp!, {ip, lr}
 8001d30:	e92d 1fff 	stmdb	sp!, {r0, r1, r2, r3, r4, r5, r6, r7, r8, r9, sl, fp, ip}
 8001d34:	f04f 0300 	mov.w	r3, #0
 8001d38:	e92d 000c 	stmdb	sp!, {r2, r3}
 8001d3c:	aa01      	add	r2, sp, #4
 8001d3e:	f7ff fc51 	bl	80015e4 <__gnu_Unwind_Backtrace>
 8001d42:	f8dd e040 	ldr.w	lr, [sp, #64]	; 0x40
 8001d46:	b012      	add	sp, #72	; 0x48
 8001d48:	4770      	bx	lr
 8001d4a:	bf00      	nop

08001d4c <next_unwind_byte>:
 8001d4c:	7a02      	ldrb	r2, [r0, #8]
 8001d4e:	4603      	mov	r3, r0
 8001d50:	b97a      	cbnz	r2, 8001d72 <next_unwind_byte+0x26>
 8001d52:	7a42      	ldrb	r2, [r0, #9]
 8001d54:	b1a2      	cbz	r2, 8001d80 <next_unwind_byte+0x34>
 8001d56:	6841      	ldr	r1, [r0, #4]
 8001d58:	3a01      	subs	r2, #1
 8001d5a:	b410      	push	{r4}
 8001d5c:	7242      	strb	r2, [r0, #9]
 8001d5e:	6808      	ldr	r0, [r1, #0]
 8001d60:	2203      	movs	r2, #3
 8001d62:	1d0c      	adds	r4, r1, #4
 8001d64:	721a      	strb	r2, [r3, #8]
 8001d66:	0202      	lsls	r2, r0, #8
 8001d68:	605c      	str	r4, [r3, #4]
 8001d6a:	0e00      	lsrs	r0, r0, #24
 8001d6c:	bc10      	pop	{r4}
 8001d6e:	601a      	str	r2, [r3, #0]
 8001d70:	4770      	bx	lr
 8001d72:	6800      	ldr	r0, [r0, #0]
 8001d74:	3a01      	subs	r2, #1
 8001d76:	721a      	strb	r2, [r3, #8]
 8001d78:	0202      	lsls	r2, r0, #8
 8001d7a:	601a      	str	r2, [r3, #0]
 8001d7c:	0e00      	lsrs	r0, r0, #24
 8001d7e:	4770      	bx	lr
 8001d80:	20b0      	movs	r0, #176	; 0xb0
 8001d82:	4770      	bx	lr

08001d84 <_Unwind_GetGR.constprop.0>:
 8001d84:	b500      	push	{lr}
 8001d86:	b085      	sub	sp, #20
 8001d88:	2300      	movs	r3, #0
 8001d8a:	aa03      	add	r2, sp, #12
 8001d8c:	9200      	str	r2, [sp, #0]
 8001d8e:	4619      	mov	r1, r3
 8001d90:	220c      	movs	r2, #12
 8001d92:	f7ff fbdd 	bl	8001550 <_Unwind_VRS_Get>
 8001d96:	9803      	ldr	r0, [sp, #12]
 8001d98:	b005      	add	sp, #20
 8001d9a:	f85d fb04 	ldr.w	pc, [sp], #4
 8001d9e:	bf00      	nop

08001da0 <unwind_UCB_from_context>:
 8001da0:	e7f0      	b.n	8001d84 <_Unwind_GetGR.constprop.0>
 8001da2:	bf00      	nop

08001da4 <__gnu_unwind_execute>:
 8001da4:	e92d 43f0 	stmdb	sp!, {r4, r5, r6, r7, r8, r9, lr}
 8001da8:	4605      	mov	r5, r0
 8001daa:	b085      	sub	sp, #20
 8001dac:	460e      	mov	r6, r1
 8001dae:	f04f 0800 	mov.w	r8, #0
 8001db2:	4630      	mov	r0, r6
 8001db4:	f7ff ffca 	bl	8001d4c <next_unwind_byte>
 8001db8:	28b0      	cmp	r0, #176	; 0xb0
 8001dba:	4604      	mov	r4, r0
 8001dbc:	f000 80ba 	beq.w	8001f34 <__gnu_unwind_execute+0x190>
 8001dc0:	0607      	lsls	r7, r0, #24
 8001dc2:	d520      	bpl.n	8001e06 <__gnu_unwind_execute+0x62>
 8001dc4:	f000 03f0 	and.w	r3, r0, #240	; 0xf0
 8001dc8:	2b80      	cmp	r3, #128	; 0x80
 8001dca:	d04d      	beq.n	8001e68 <__gnu_unwind_execute+0xc4>
 8001dcc:	2b90      	cmp	r3, #144	; 0x90
 8001dce:	d036      	beq.n	8001e3e <__gnu_unwind_execute+0x9a>
 8001dd0:	2ba0      	cmp	r3, #160	; 0xa0
 8001dd2:	d060      	beq.n	8001e96 <__gnu_unwind_execute+0xf2>
 8001dd4:	2bb0      	cmp	r3, #176	; 0xb0
 8001dd6:	d074      	beq.n	8001ec2 <__gnu_unwind_execute+0x11e>
 8001dd8:	2bc0      	cmp	r3, #192	; 0xc0
 8001dda:	f000 808b 	beq.w	8001ef4 <__gnu_unwind_execute+0x150>
 8001dde:	f000 03f8 	and.w	r3, r0, #248	; 0xf8
 8001de2:	2bd0      	cmp	r3, #208	; 0xd0
 8001de4:	d10b      	bne.n	8001dfe <__gnu_unwind_execute+0x5a>
 8001de6:	f000 0207 	and.w	r2, r0, #7
 8001dea:	3201      	adds	r2, #1
 8001dec:	2305      	movs	r3, #5
 8001dee:	f442 2200 	orr.w	r2, r2, #524288	; 0x80000
 8001df2:	2101      	movs	r1, #1
 8001df4:	4628      	mov	r0, r5
 8001df6:	f7ff fd91 	bl	800191c <_Unwind_VRS_Pop>
 8001dfa:	2800      	cmp	r0, #0
 8001dfc:	d0d9      	beq.n	8001db2 <__gnu_unwind_execute+0xe>
 8001dfe:	2009      	movs	r0, #9
 8001e00:	b005      	add	sp, #20
 8001e02:	e8bd 83f0 	ldmia.w	sp!, {r4, r5, r6, r7, r8, r9, pc}
 8001e06:	0083      	lsls	r3, r0, #2
 8001e08:	b2db      	uxtb	r3, r3
 8001e0a:	1d1f      	adds	r7, r3, #4
 8001e0c:	f10d 090c 	add.w	r9, sp, #12
 8001e10:	2300      	movs	r3, #0
 8001e12:	4619      	mov	r1, r3
 8001e14:	f8cd 9000 	str.w	r9, [sp]
 8001e18:	220d      	movs	r2, #13
 8001e1a:	4628      	mov	r0, r5
 8001e1c:	f7ff fb98 	bl	8001550 <_Unwind_VRS_Get>
 8001e20:	9b03      	ldr	r3, [sp, #12]
 8001e22:	f8cd 9000 	str.w	r9, [sp]
 8001e26:	0660      	lsls	r0, r4, #25
 8001e28:	bf4c      	ite	mi
 8001e2a:	1bdf      	submi	r7, r3, r7
 8001e2c:	18ff      	addpl	r7, r7, r3
 8001e2e:	2300      	movs	r3, #0
 8001e30:	220d      	movs	r2, #13
 8001e32:	4619      	mov	r1, r3
 8001e34:	4628      	mov	r0, r5
 8001e36:	9703      	str	r7, [sp, #12]
 8001e38:	f7ff fbb0 	bl	800159c <_Unwind_VRS_Set>
 8001e3c:	e7b9      	b.n	8001db2 <__gnu_unwind_execute+0xe>
 8001e3e:	f000 030d 	and.w	r3, r0, #13
 8001e42:	2b0d      	cmp	r3, #13
 8001e44:	d0db      	beq.n	8001dfe <__gnu_unwind_execute+0x5a>
 8001e46:	af03      	add	r7, sp, #12
 8001e48:	2300      	movs	r3, #0
 8001e4a:	f000 020f 	and.w	r2, r0, #15
 8001e4e:	4619      	mov	r1, r3
 8001e50:	9700      	str	r7, [sp, #0]
 8001e52:	4628      	mov	r0, r5
 8001e54:	f7ff fb7c 	bl	8001550 <_Unwind_VRS_Get>
 8001e58:	2300      	movs	r3, #0
 8001e5a:	9700      	str	r7, [sp, #0]
 8001e5c:	220d      	movs	r2, #13
 8001e5e:	4619      	mov	r1, r3
 8001e60:	4628      	mov	r0, r5
 8001e62:	f7ff fb9b 	bl	800159c <_Unwind_VRS_Set>
 8001e66:	e7a4      	b.n	8001db2 <__gnu_unwind_execute+0xe>
 8001e68:	4630      	mov	r0, r6
 8001e6a:	f7ff ff6f 	bl	8001d4c <next_unwind_byte>
 8001e6e:	0224      	lsls	r4, r4, #8
 8001e70:	4320      	orrs	r0, r4
 8001e72:	f5b0 4f00 	cmp.w	r0, #32768	; 0x8000
 8001e76:	d0c2      	beq.n	8001dfe <__gnu_unwind_execute+0x5a>
 8001e78:	0104      	lsls	r4, r0, #4
 8001e7a:	2300      	movs	r3, #0
 8001e7c:	b2a2      	uxth	r2, r4
 8001e7e:	4619      	mov	r1, r3
 8001e80:	4628      	mov	r0, r5
 8001e82:	f7ff fd4b 	bl	800191c <_Unwind_VRS_Pop>
 8001e86:	2800      	cmp	r0, #0
 8001e88:	d1b9      	bne.n	8001dfe <__gnu_unwind_execute+0x5a>
 8001e8a:	f414 4f00 	tst.w	r4, #32768	; 0x8000
 8001e8e:	bf18      	it	ne
 8001e90:	f04f 0801 	movne.w	r8, #1
 8001e94:	e78d      	b.n	8001db2 <__gnu_unwind_execute+0xe>
 8001e96:	43c2      	mvns	r2, r0
 8001e98:	f002 0307 	and.w	r3, r2, #7
 8001e9c:	f44f 627f 	mov.w	r2, #4080	; 0xff0
 8001ea0:	411a      	asrs	r2, r3
 8001ea2:	0701      	lsls	r1, r0, #28
 8001ea4:	f402 627f 	and.w	r2, r2, #4080	; 0xff0
 8001ea8:	f04f 0300 	mov.w	r3, #0
 8001eac:	bf48      	it	mi
 8001eae:	f442 4280 	orrmi.w	r2, r2, #16384	; 0x4000
 8001eb2:	4619      	mov	r1, r3
 8001eb4:	4628      	mov	r0, r5
 8001eb6:	f7ff fd31 	bl	800191c <_Unwind_VRS_Pop>
 8001eba:	2800      	cmp	r0, #0
 8001ebc:	f43f af79 	beq.w	8001db2 <__gnu_unwind_execute+0xe>
 8001ec0:	e79d      	b.n	8001dfe <__gnu_unwind_execute+0x5a>
 8001ec2:	28b1      	cmp	r0, #177	; 0xb1
 8001ec4:	d03b      	beq.n	8001f3e <__gnu_unwind_execute+0x19a>
 8001ec6:	28b2      	cmp	r0, #178	; 0xb2
 8001ec8:	f000 8093 	beq.w	8001ff2 <__gnu_unwind_execute+0x24e>
 8001ecc:	28b3      	cmp	r0, #179	; 0xb3
 8001ece:	d041      	beq.n	8001f54 <__gnu_unwind_execute+0x1b0>
 8001ed0:	f000 03fc 	and.w	r3, r0, #252	; 0xfc
 8001ed4:	2bb4      	cmp	r3, #180	; 0xb4
 8001ed6:	d092      	beq.n	8001dfe <__gnu_unwind_execute+0x5a>
 8001ed8:	f000 0207 	and.w	r2, r0, #7
 8001edc:	3201      	adds	r2, #1
 8001ede:	2301      	movs	r3, #1
 8001ee0:	f442 2200 	orr.w	r2, r2, #524288	; 0x80000
 8001ee4:	4619      	mov	r1, r3
 8001ee6:	4628      	mov	r0, r5
 8001ee8:	f7ff fd18 	bl	800191c <_Unwind_VRS_Pop>
 8001eec:	2800      	cmp	r0, #0
 8001eee:	f43f af60 	beq.w	8001db2 <__gnu_unwind_execute+0xe>
 8001ef2:	e784      	b.n	8001dfe <__gnu_unwind_execute+0x5a>
 8001ef4:	28c6      	cmp	r0, #198	; 0xc6
 8001ef6:	d04a      	beq.n	8001f8e <__gnu_unwind_execute+0x1ea>
 8001ef8:	28c7      	cmp	r0, #199	; 0xc7
 8001efa:	d054      	beq.n	8001fa6 <__gnu_unwind_execute+0x202>
 8001efc:	f000 03f8 	and.w	r3, r0, #248	; 0xf8
 8001f00:	2bc0      	cmp	r3, #192	; 0xc0
 8001f02:	d063      	beq.n	8001fcc <__gnu_unwind_execute+0x228>
 8001f04:	28c8      	cmp	r0, #200	; 0xc8
 8001f06:	d068      	beq.n	8001fda <__gnu_unwind_execute+0x236>
 8001f08:	28c9      	cmp	r0, #201	; 0xc9
 8001f0a:	f47f af78 	bne.w	8001dfe <__gnu_unwind_execute+0x5a>
 8001f0e:	4630      	mov	r0, r6
 8001f10:	f7ff ff1c 	bl	8001d4c <next_unwind_byte>
 8001f14:	0302      	lsls	r2, r0, #12
 8001f16:	f000 000f 	and.w	r0, r0, #15
 8001f1a:	f402 2270 	and.w	r2, r2, #983040	; 0xf0000
 8001f1e:	3001      	adds	r0, #1
 8001f20:	4302      	orrs	r2, r0
 8001f22:	2101      	movs	r1, #1
 8001f24:	2305      	movs	r3, #5
 8001f26:	4628      	mov	r0, r5
 8001f28:	f7ff fcf8 	bl	800191c <_Unwind_VRS_Pop>
 8001f2c:	2800      	cmp	r0, #0
 8001f2e:	f43f af40 	beq.w	8001db2 <__gnu_unwind_execute+0xe>
 8001f32:	e764      	b.n	8001dfe <__gnu_unwind_execute+0x5a>
 8001f34:	f1b8 0f00 	cmp.w	r8, #0
 8001f38:	d018      	beq.n	8001f6c <__gnu_unwind_execute+0x1c8>
 8001f3a:	2000      	movs	r0, #0
 8001f3c:	e760      	b.n	8001e00 <__gnu_unwind_execute+0x5c>
 8001f3e:	4630      	mov	r0, r6
 8001f40:	f7ff ff04 	bl	8001d4c <next_unwind_byte>
 8001f44:	4602      	mov	r2, r0
 8001f46:	2800      	cmp	r0, #0
 8001f48:	f43f af59 	beq.w	8001dfe <__gnu_unwind_execute+0x5a>
 8001f4c:	f010 03f0 	ands.w	r3, r0, #240	; 0xf0
 8001f50:	d0c8      	beq.n	8001ee4 <__gnu_unwind_execute+0x140>
 8001f52:	e754      	b.n	8001dfe <__gnu_unwind_execute+0x5a>
 8001f54:	4630      	mov	r0, r6
 8001f56:	f7ff fef9 	bl	8001d4c <next_unwind_byte>
 8001f5a:	0302      	lsls	r2, r0, #12
 8001f5c:	f000 030f 	and.w	r3, r0, #15
 8001f60:	3301      	adds	r3, #1
 8001f62:	f402 2270 	and.w	r2, r2, #983040	; 0xf0000
 8001f66:	431a      	orrs	r2, r3
 8001f68:	2301      	movs	r3, #1
 8001f6a:	e7bb      	b.n	8001ee4 <__gnu_unwind_execute+0x140>
 8001f6c:	ac03      	add	r4, sp, #12
 8001f6e:	4643      	mov	r3, r8
 8001f70:	220e      	movs	r2, #14
 8001f72:	4641      	mov	r1, r8
 8001f74:	9400      	str	r4, [sp, #0]
 8001f76:	4628      	mov	r0, r5
 8001f78:	f7ff faea 	bl	8001550 <_Unwind_VRS_Get>
 8001f7c:	9400      	str	r4, [sp, #0]
 8001f7e:	4643      	mov	r3, r8
 8001f80:	220f      	movs	r2, #15
 8001f82:	4641      	mov	r1, r8
 8001f84:	4628      	mov	r0, r5
 8001f86:	f7ff fb09 	bl	800159c <_Unwind_VRS_Set>
 8001f8a:	4640      	mov	r0, r8
 8001f8c:	e738      	b.n	8001e00 <__gnu_unwind_execute+0x5c>
 8001f8e:	4630      	mov	r0, r6
 8001f90:	f7ff fedc 	bl	8001d4c <next_unwind_byte>
 8001f94:	0302      	lsls	r2, r0, #12
 8001f96:	f000 030f 	and.w	r3, r0, #15
 8001f9a:	3301      	adds	r3, #1
 8001f9c:	f402 2270 	and.w	r2, r2, #983040	; 0xf0000
 8001fa0:	431a      	orrs	r2, r3
 8001fa2:	2303      	movs	r3, #3
 8001fa4:	e79e      	b.n	8001ee4 <__gnu_unwind_execute+0x140>
 8001fa6:	4630      	mov	r0, r6
 8001fa8:	f7ff fed0 	bl	8001d4c <next_unwind_byte>
 8001fac:	4602      	mov	r2, r0
 8001fae:	2800      	cmp	r0, #0
 8001fb0:	f43f af25 	beq.w	8001dfe <__gnu_unwind_execute+0x5a>
 8001fb4:	f010 03f0 	ands.w	r3, r0, #240	; 0xf0
 8001fb8:	f47f af21 	bne.w	8001dfe <__gnu_unwind_execute+0x5a>
 8001fbc:	2104      	movs	r1, #4
 8001fbe:	4628      	mov	r0, r5
 8001fc0:	f7ff fcac 	bl	800191c <_Unwind_VRS_Pop>
 8001fc4:	2800      	cmp	r0, #0
 8001fc6:	f43f aef4 	beq.w	8001db2 <__gnu_unwind_execute+0xe>
 8001fca:	e718      	b.n	8001dfe <__gnu_unwind_execute+0x5a>
 8001fcc:	f000 020f 	and.w	r2, r0, #15
 8001fd0:	3201      	adds	r2, #1
 8001fd2:	2303      	movs	r3, #3
 8001fd4:	f442 2220 	orr.w	r2, r2, #655360	; 0xa0000
 8001fd8:	e784      	b.n	8001ee4 <__gnu_unwind_execute+0x140>
 8001fda:	4630      	mov	r0, r6
 8001fdc:	f7ff feb6 	bl	8001d4c <next_unwind_byte>
 8001fe0:	f000 02f0 	and.w	r2, r0, #240	; 0xf0
 8001fe4:	f000 030f 	and.w	r3, r0, #15
 8001fe8:	3210      	adds	r2, #16
 8001fea:	3301      	adds	r3, #1
 8001fec:	ea43 3202 	orr.w	r2, r3, r2, lsl #12
 8001ff0:	e797      	b.n	8001f22 <__gnu_unwind_execute+0x17e>
 8001ff2:	2300      	movs	r3, #0
 8001ff4:	f10d 090c 	add.w	r9, sp, #12
 8001ff8:	220d      	movs	r2, #13
 8001ffa:	4619      	mov	r1, r3
 8001ffc:	f8cd 9000 	str.w	r9, [sp]
 8002000:	4628      	mov	r0, r5
 8002002:	f7ff faa5 	bl	8001550 <_Unwind_VRS_Get>
 8002006:	4630      	mov	r0, r6
 8002008:	f7ff fea0 	bl	8001d4c <next_unwind_byte>
 800200c:	0602      	lsls	r2, r0, #24
 800200e:	f04f 0402 	mov.w	r4, #2
 8002012:	d50c      	bpl.n	800202e <__gnu_unwind_execute+0x28a>
 8002014:	9b03      	ldr	r3, [sp, #12]
 8002016:	f000 007f 	and.w	r0, r0, #127	; 0x7f
 800201a:	40a0      	lsls	r0, r4
 800201c:	4418      	add	r0, r3
 800201e:	9003      	str	r0, [sp, #12]
 8002020:	4630      	mov	r0, r6
 8002022:	f7ff fe93 	bl	8001d4c <next_unwind_byte>
 8002026:	0603      	lsls	r3, r0, #24
 8002028:	f104 0407 	add.w	r4, r4, #7
 800202c:	d4f2      	bmi.n	8002014 <__gnu_unwind_execute+0x270>
 800202e:	9b03      	ldr	r3, [sp, #12]
 8002030:	f8cd 9000 	str.w	r9, [sp]
 8002034:	f000 027f 	and.w	r2, r0, #127	; 0x7f
 8002038:	40a2      	lsls	r2, r4
 800203a:	f503 7301 	add.w	r3, r3, #516	; 0x204
 800203e:	441a      	add	r2, r3
 8002040:	2300      	movs	r3, #0
 8002042:	9203      	str	r2, [sp, #12]
 8002044:	4619      	mov	r1, r3
 8002046:	220d      	movs	r2, #13
 8002048:	4628      	mov	r0, r5
 800204a:	f7ff faa7 	bl	800159c <_Unwind_VRS_Set>
 800204e:	e6b0      	b.n	8001db2 <__gnu_unwind_execute+0xe>

08002050 <__gnu_unwind_frame>:
 8002050:	b510      	push	{r4, lr}
 8002052:	6cc2      	ldr	r2, [r0, #76]	; 0x4c
 8002054:	6853      	ldr	r3, [r2, #4]
 8002056:	b084      	sub	sp, #16
 8002058:	f04f 0c03 	mov.w	ip, #3
 800205c:	3208      	adds	r2, #8
 800205e:	021c      	lsls	r4, r3, #8
 8002060:	4608      	mov	r0, r1
 8002062:	0e1b      	lsrs	r3, r3, #24
 8002064:	a901      	add	r1, sp, #4
 8002066:	9401      	str	r4, [sp, #4]
 8002068:	9202      	str	r2, [sp, #8]
 800206a:	f88d c00c 	strb.w	ip, [sp, #12]
 800206e:	f88d 300d 	strb.w	r3, [sp, #13]
 8002072:	f7ff fe97 	bl	8001da4 <__gnu_unwind_execute>
 8002076:	b004      	add	sp, #16
 8002078:	bd10      	pop	{r4, pc}
 800207a:	bf00      	nop

0800207c <_Unwind_GetRegionStart>:
 800207c:	b508      	push	{r3, lr}
 800207e:	f7ff fe8f 	bl	8001da0 <unwind_UCB_from_context>
 8002082:	6c80      	ldr	r0, [r0, #72]	; 0x48
 8002084:	bd08      	pop	{r3, pc}
 8002086:	bf00      	nop

08002088 <_Unwind_GetLanguageSpecificData>:
 8002088:	b508      	push	{r3, lr}
 800208a:	f7ff fe89 	bl	8001da0 <unwind_UCB_from_context>
 800208e:	6cc0      	ldr	r0, [r0, #76]	; 0x4c
 8002090:	79c3      	ldrb	r3, [r0, #7]
 8002092:	3302      	adds	r3, #2
 8002094:	eb00 0083 	add.w	r0, r0, r3, lsl #2
 8002098:	bd08      	pop	{r3, pc}
 800209a:	bf00      	nop

0800209c <__aeabi_idiv0>:
 800209c:	4770      	bx	lr
 800209e:	bf00      	nop

080020a0 <abort>:
 80020a0:	b508      	push	{r3, lr}
 80020a2:	2006      	movs	r0, #6
 80020a4:	f000 f89e 	bl	80021e4 <raise>
 80020a8:	2001      	movs	r0, #1
 80020aa:	f000 f8f1 	bl	8002290 <_exit>
 80020ae:	bf00      	nop

080020b0 <memcpy>:
 80020b0:	4684      	mov	ip, r0
 80020b2:	ea41 0300 	orr.w	r3, r1, r0
 80020b6:	f013 0303 	ands.w	r3, r3, #3
 80020ba:	d16d      	bne.n	8002198 <memcpy+0xe8>
 80020bc:	3a40      	subs	r2, #64	; 0x40
 80020be:	d341      	bcc.n	8002144 <memcpy+0x94>
 80020c0:	f851 3b04 	ldr.w	r3, [r1], #4
 80020c4:	f840 3b04 	str.w	r3, [r0], #4
 80020c8:	f851 3b04 	ldr.w	r3, [r1], #4
 80020cc:	f840 3b04 	str.w	r3, [r0], #4
 80020d0:	f851 3b04 	ldr.w	r3, [r1], #4
 80020d4:	f840 3b04 	str.w	r3, [r0], #4
 80020d8:	f851 3b04 	ldr.w	r3, [r1], #4
 80020dc:	f840 3b04 	str.w	r3, [r0], #4
 80020e0:	f851 3b04 	ldr.w	r3, [r1], #4
 80020e4:	f840 3b04 	str.w	r3, [r0], #4
 80020e8:	f851 3b04 	ldr.w	r3, [r1], #4
 80020ec:	f840 3b04 	str.w	r3, [r0], #4
 80020f0:	f851 3b04 	ldr.w	r3, [r1], #4
 80020f4:	f840 3b04 	str.w	r3, [r0], #4
 80020f8:	f851 3b04 	ldr.w	r3, [r1], #4
 80020fc:	f840 3b04 	str.w	r3, [r0], #4
 8002100:	f851 3b04 	ldr.w	r3, [r1], #4
 8002104:	f840 3b04 	str.w	r3, [r0], #4
 8002108:	f851 3b04 	ldr.w	r3, [r1], #4
 800210c:	f840 3b04 	str.w	r3, [r0], #4
 8002110:	f851 3b04 	ldr.w	r3, [r1], #4
 8002114:	f840 3b04 	str.w	r3, [r0], #4
 8002118:	f851 3b04 	ldr.w	r3, [r1], #4
 800211c:	f840 3b04 	str.w	r3, [r0], #4
 8002120:	f851 3b04 	ldr.w	r3, [r1], #4
 8002124:	f840 3b04 	str.w	r3, [r0], #4
 8002128:	f851 3b04 	ldr.w	r3, [r1], #4
 800212c:	f840 3b04 	str.w	r3, [r0], #4
 8002130:	f851 3b04 	ldr.w	r3, [r1], #4
 8002134:	f840 3b04 	str.w	r3, [r0], #4
 8002138:	f851 3b04 	ldr.w	r3, [r1], #4
 800213c:	f840 3b04 	str.w	r3, [r0], #4
 8002140:	3a40      	subs	r2, #64	; 0x40
 8002142:	d2bd      	bcs.n	80020c0 <memcpy+0x10>
 8002144:	3230      	adds	r2, #48	; 0x30
 8002146:	d311      	bcc.n	800216c <memcpy+0xbc>
 8002148:	f851 3b04 	ldr.w	r3, [r1], #4
 800214c:	f840 3b04 	str.w	r3, [r0], #4
 8002150:	f851 3b04 	ldr.w	r3, [r1], #4
 8002154:	f840 3b04 	str.w	r3, [r0], #4
 8002158:	f851 3b04 	ldr.w	r3, [r1], #4
 800215c:	f840 3b04 	str.w	r3, [r0], #4
 8002160:	f851 3b04 	ldr.w	r3, [r1], #4
 8002164:	f840 3b04 	str.w	r3, [r0], #4
 8002168:	3a10      	subs	r2, #16
 800216a:	d2ed      	bcs.n	8002148 <memcpy+0x98>
 800216c:	320c      	adds	r2, #12
 800216e:	d305      	bcc.n	800217c <memcpy+0xcc>
 8002170:	f851 3b04 	ldr.w	r3, [r1], #4
 8002174:	f840 3b04 	str.w	r3, [r0], #4
 8002178:	3a04      	subs	r2, #4
 800217a:	d2f9      	bcs.n	8002170 <memcpy+0xc0>
 800217c:	3204      	adds	r2, #4
 800217e:	d008      	beq.n	8002192 <memcpy+0xe2>
 8002180:	07d2      	lsls	r2, r2, #31
 8002182:	bf1c      	itt	ne
 8002184:	f811 3b01 	ldrbne.w	r3, [r1], #1
 8002188:	f800 3b01 	strbne.w	r3, [r0], #1
 800218c:	d301      	bcc.n	8002192 <memcpy+0xe2>
 800218e:	880b      	ldrh	r3, [r1, #0]
 8002190:	8003      	strh	r3, [r0, #0]
 8002192:	4660      	mov	r0, ip
 8002194:	4770      	bx	lr
 8002196:	bf00      	nop
 8002198:	2a08      	cmp	r2, #8
 800219a:	d313      	bcc.n	80021c4 <memcpy+0x114>
 800219c:	078b      	lsls	r3, r1, #30
 800219e:	d08d      	beq.n	80020bc <memcpy+0xc>
 80021a0:	f010 0303 	ands.w	r3, r0, #3
 80021a4:	d08a      	beq.n	80020bc <memcpy+0xc>
 80021a6:	f1c3 0304 	rsb	r3, r3, #4
 80021aa:	1ad2      	subs	r2, r2, r3
 80021ac:	07db      	lsls	r3, r3, #31
 80021ae:	bf1c      	itt	ne
 80021b0:	f811 3b01 	ldrbne.w	r3, [r1], #1
 80021b4:	f800 3b01 	strbne.w	r3, [r0], #1
 80021b8:	d380      	bcc.n	80020bc <memcpy+0xc>
 80021ba:	f831 3b02 	ldrh.w	r3, [r1], #2
 80021be:	f820 3b02 	strh.w	r3, [r0], #2
 80021c2:	e77b      	b.n	80020bc <memcpy+0xc>
 80021c4:	3a04      	subs	r2, #4
 80021c6:	d3d9      	bcc.n	800217c <memcpy+0xcc>
 80021c8:	3a01      	subs	r2, #1
 80021ca:	f811 3b01 	ldrb.w	r3, [r1], #1
 80021ce:	f800 3b01 	strb.w	r3, [r0], #1
 80021d2:	d2f9      	bcs.n	80021c8 <memcpy+0x118>
 80021d4:	780b      	ldrb	r3, [r1, #0]
 80021d6:	7003      	strb	r3, [r0, #0]
 80021d8:	784b      	ldrb	r3, [r1, #1]
 80021da:	7043      	strb	r3, [r0, #1]
 80021dc:	788b      	ldrb	r3, [r1, #2]
 80021de:	7083      	strb	r3, [r0, #2]
 80021e0:	4660      	mov	r0, ip
 80021e2:	4770      	bx	lr

080021e4 <raise>:
 80021e4:	b538      	push	{r3, r4, r5, lr}
 80021e6:	4b15      	ldr	r3, [pc, #84]	; (800223c <raise+0x58>)
 80021e8:	281f      	cmp	r0, #31
 80021ea:	681d      	ldr	r5, [r3, #0]
 80021ec:	d820      	bhi.n	8002230 <raise+0x4c>
 80021ee:	f8d5 22dc 	ldr.w	r2, [r5, #732]	; 0x2dc
 80021f2:	4604      	mov	r4, r0
 80021f4:	b162      	cbz	r2, 8002210 <raise+0x2c>
 80021f6:	f852 3020 	ldr.w	r3, [r2, r0, lsl #2]
 80021fa:	b14b      	cbz	r3, 8002210 <raise+0x2c>
 80021fc:	2b01      	cmp	r3, #1
 80021fe:	d015      	beq.n	800222c <raise+0x48>
 8002200:	1c59      	adds	r1, r3, #1
 8002202:	d00f      	beq.n	8002224 <raise+0x40>
 8002204:	2500      	movs	r5, #0
 8002206:	f842 5020 	str.w	r5, [r2, r0, lsl #2]
 800220a:	4798      	blx	r3
 800220c:	4628      	mov	r0, r5
 800220e:	bd38      	pop	{r3, r4, r5, pc}
 8002210:	4628      	mov	r0, r5
 8002212:	f000 f82b 	bl	800226c <_getpid_r>
 8002216:	4622      	mov	r2, r4
 8002218:	4601      	mov	r1, r0
 800221a:	4628      	mov	r0, r5
 800221c:	e8bd 4038 	ldmia.w	sp!, {r3, r4, r5, lr}
 8002220:	f000 b80e 	b.w	8002240 <_kill_r>
 8002224:	2316      	movs	r3, #22
 8002226:	602b      	str	r3, [r5, #0]
 8002228:	2001      	movs	r0, #1
 800222a:	bd38      	pop	{r3, r4, r5, pc}
 800222c:	2000      	movs	r0, #0
 800222e:	bd38      	pop	{r3, r4, r5, pc}
 8002230:	2316      	movs	r3, #22
 8002232:	602b      	str	r3, [r5, #0]
 8002234:	f04f 30ff 	mov.w	r0, #4294967295	; 0xffffffff
 8002238:	bd38      	pop	{r3, r4, r5, pc}
 800223a:	bf00      	nop
 800223c:	2000000c 	andcs	r0, r0, ip

08002240 <_kill_r>:
 8002240:	b570      	push	{r4, r5, r6, lr}
 8002242:	460c      	mov	r4, r1
 8002244:	4d08      	ldr	r5, [pc, #32]	; (8002268 <_kill_r+0x28>)
 8002246:	4603      	mov	r3, r0
 8002248:	2600      	movs	r6, #0
 800224a:	4620      	mov	r0, r4
 800224c:	4611      	mov	r1, r2
 800224e:	461c      	mov	r4, r3
 8002250:	602e      	str	r6, [r5, #0]
 8002252:	f000 f815 	bl	8002280 <_kill>
 8002256:	1c43      	adds	r3, r0, #1
 8002258:	d000      	beq.n	800225c <_kill_r+0x1c>
 800225a:	bd70      	pop	{r4, r5, r6, pc}
 800225c:	682b      	ldr	r3, [r5, #0]
 800225e:	2b00      	cmp	r3, #0
 8002260:	d0fb      	beq.n	800225a <_kill_r+0x1a>
 8002262:	6023      	str	r3, [r4, #0]
 8002264:	bd70      	pop	{r4, r5, r6, pc}
 8002266:	bf00      	nop
 8002268:	20000460 	andcs	r0, r0, r0, ror #8

0800226c <_getpid_r>:
 800226c:	f000 b800 	b.w	8002270 <_getpid>

08002270 <_getpid>:
 8002270:	4b02      	ldr	r3, [pc, #8]	; (800227c <_getpid+0xc>)
 8002272:	2258      	movs	r2, #88	; 0x58
 8002274:	601a      	str	r2, [r3, #0]
 8002276:	f04f 30ff 	mov.w	r0, #4294967295	; 0xffffffff
 800227a:	4770      	bx	lr
 800227c:	20000460 	andcs	r0, r0, r0, ror #8

08002280 <_kill>:
 8002280:	4b02      	ldr	r3, [pc, #8]	; (800228c <_kill+0xc>)
 8002282:	2258      	movs	r2, #88	; 0x58
 8002284:	601a      	str	r2, [r3, #0]
 8002286:	f04f 30ff 	mov.w	r0, #4294967295	; 0xffffffff
 800228a:	4770      	bx	lr
 800228c:	20000460 	andcs	r0, r0, r0, ror #8

08002290 <_exit>:
 8002290:	e7fe      	b.n	8002290 <_exit>
 8002292:	bf00      	nop

08002294 <_init>:
 8002294:	b5f8      	push	{r3, r4, r5, r6, r7, lr}
 8002296:	bf00      	nop
 8002298:	bcf8      	pop	{r3, r4, r5, r6, r7}
 800229a:	bc08      	pop	{r3}
 800229c:	469e      	mov	lr, r3
 800229e:	4770      	bx	lr

080022a0 <_fini>:
 80022a0:	b5f8      	push	{r3, r4, r5, r6, r7, lr}
 80022a2:	bf00      	nop
 80022a4:	bcf8      	pop	{r3, r4, r5, r6, r7}
 80022a6:	bc08      	pop	{r3}
 80022a8:	469e      	mov	lr, r3
 80022aa:	4770      	bx	lr

Disassembly of section .ARM:

080022f0 <__exidx_start>:
 80022f0:	7fffdf14 	svcvc	0x00ffdf14
 80022f4:	00000001 	andeq	r0, r0, r1
 80022f8:	7fffdf1c 	svcvc	0x00ffdf1c
 80022fc:	7fffffc4 	svcvc	0x00ffffc4
 8002300:	7fffdf1c 	svcvc	0x00ffdf1c
 8002304:	00000001 	andeq	r0, r0, r1
 8002308:	7fffdfe8 	svcvc	0x00ffdfe8
 800230c:	80aab0b0 	strhthi	fp, [sl], r0
 8002310:	7fffe140 	svcvc	0x00ffe140
 8002314:	8001aab0 			; <UNDEFINED> instruction: 0x8001aab0
 8002318:	7fffe548 	svcvc	0x00ffe548
 800231c:	00000001 	andeq	r0, r0, r1
 8002320:	7fffe5d8 	svcvc	0x00ffe5d8
 8002324:	80a8b0b0 	strhthi	fp, [r8], r0
 8002328:	7fffe61c 	svcvc	0x00ffe61c
 800232c:	00000001 	andeq	r0, r0, r1
 8002330:	7fffe638 	svcvc	0x00ffe638
 8002334:	80b108a9 	adcshi	r0, r1, r9, lsr #17
 8002338:	7fffe658 	svcvc	0x00ffe658
 800233c:	7fffff90 	svcvc	0x00ffff90
 8002340:	7fffe6a4 	svcvc	0x00ffe6a4
 8002344:	00000001 	andeq	r0, r0, r1
 8002348:	7fffef18 	svcvc	0x00ffef18
 800234c:	8002a9b0 			; <UNDEFINED> instruction: 0x8002a9b0
 8002350:	7fffefac 	svcvc	0x00ffefac
 8002354:	80a8b0b0 	strhthi	fp, [r8], r0
 8002358:	7fffeffc 	svcvc	0x00ffeffc
 800235c:	00000001 	andeq	r0, r0, r1
 8002360:	7ffff008 	svcvc	0x00fff008
 8002364:	80aab0b0 	strhthi	fp, [sl], r0
 8002368:	7ffff03c 	svcvc	0x00fff03c
 800236c:	80b271ae 	adcshi	r7, r2, lr, lsr #3
 8002370:	7ffff100 	svcvc	0x00fff100
 8002374:	00000001 	andeq	r0, r0, r1
 8002378:	7ffff0fc 	svcvc	0x00fff0fc
 800237c:	80383fab 	eorshi	r3, r8, fp, lsr #31
 8002380:	7ffff15c 	svcvc	0x00fff15c
 8002384:	00000001 	andeq	r0, r0, r1
 8002388:	7ffff164 	svcvc	0x00fff164
 800238c:	80aab0b0 	strhthi	fp, [sl], r0
 8002390:	7ffff1a0 	svcvc	0x00fff1a0
 8002394:	00000001 	andeq	r0, r0, r1
 8002398:	7ffff24c 	svcvc	0x00fff24c
 800239c:	80b20daa 	adcshi	r0, r2, sl, lsr #27
 80023a0:	7ffff2c8 	svcvc	0x00fff2c8
 80023a4:	8008afb0 			; <UNDEFINED> instruction: 0x8008afb0
 80023a8:	7ffff568 	svcvc	0x00fff568
 80023ac:	00000001 	andeq	r0, r0, r1
 80023b0:	7ffff56c 	svcvc	0x00fff56c
 80023b4:	80023fad 	andhi	r3, r2, sp, lsr #31
 80023b8:	7ffff7e8 	svcvc	0x00fff7e8
 80023bc:	00000001 	andeq	r0, r0, r1
 80023c0:	7ffff9c4 	svcvc	0x00fff9c4
 80023c4:	80048400 	andhi	r8, r4, r0, lsl #8
 80023c8:	7ffff9d8 	svcvc	0x00fff9d8
 80023cc:	00000001 	andeq	r0, r0, r1
 80023d0:	7ffff9d4 	svcvc	0x00fff9d4
 80023d4:	8004adb0 			; <UNDEFINED> instruction: 0x8004adb0
 80023d8:	7ffffc78 	svcvc	0x00fffc78
 80023dc:	8003a8b0 			; <UNDEFINED> instruction: 0x8003a8b0
 80023e0:	7ffffc9c 	svcvc	0x00fffc9c
 80023e4:	7ffffef4 	svcvc	0x00fffef4
 80023e8:	7ffffca0 	svcvc	0x00fffca0
 80023ec:	7ffffef8 	svcvc	0x00fffef8
 80023f0:	7ffffcac 	svcvc	0x00fffcac
 80023f4:	00000001 	andeq	r0, r0, r1
